
vmm/guest/obj/kern/kernel:     formato del fichero elf64-x86-64


Desensamblado de la sección .bootstrap:

0000000000100000 <_head64>:
_head64:

# Save multiboot_info addr passed by bootloader
#ifdef VMM_GUEST
// VMCALL to the VMM to get a multiboot map.
    movl $VMX_VMCALL_MBMAP, %eax
  100000:	b8 01 00 00 00       	mov    $0x1,%eax
    vmcall
  100005:	0f 01 c1             	vmcall 
#endif
	
    movl $multiboot_info, %eax
  100008:	b8 00 70 10 00       	mov    $0x107000,%eax
    movl %ebx, (%eax)
  10000d:	89 18                	mov    %ebx,(%rax)
#ifndef VMM_GUEST
    movw $0x1234,0x472			# warm boot
#endif
	
# Reset the stack pointer in case we didn't come from the loader
    movl $0x7c00,%esp
  10000f:	bc 00 7c 00 00       	mov    $0x7c00,%esp

    call verify_cpu   #check if CPU supports long mode
  100014:	e8 cc 00 00 00       	callq  1000e5 <verify_cpu>
#ifndef VMM_GUEST
    movl $CR4_PAE,%eax
#else
    movl $(CR4_PAE|CR4_VMXE),%eax
  100019:	b8 20 20 00 00       	mov    $0x2020,%eax
#endif
    movl %eax,%cr4
  10001e:	0f 22 e0             	mov    %rax,%cr4

# build an early boot pml4 at physical address pml4phys 

    #initializing the page tables
    movl $pml4,%edi
  100021:	bf 00 20 10 00       	mov    $0x102000,%edi
    xorl %eax,%eax
  100026:	31 c0                	xor    %eax,%eax
    movl $((4096/4)*5),%ecx  # moving these many words to the 6 pages with 4 second level pages + 1 3rd level + 1 4th level pages 
  100028:	b9 00 14 00 00       	mov    $0x1400,%ecx
    rep stosl
  10002d:	f3 ab                	rep stos %eax,%es:(%rdi)
    # creating a 4G boot page table
    # setting the 4th level page table only the second entry needed (PML4)
    movl $pml4,%eax
  10002f:	b8 00 20 10 00       	mov    $0x102000,%eax
    movl $pdpt1, %ebx
  100034:	bb 00 30 10 00       	mov    $0x103000,%ebx
    orl $PTE_P,%ebx
  100039:	83 cb 01             	or     $0x1,%ebx
    orl $PTE_W,%ebx
  10003c:	83 cb 02             	or     $0x2,%ebx
    movl %ebx,(%eax)
  10003f:	89 18                	mov    %ebx,(%rax)

    movl $pdpt2, %ebx
  100041:	bb 00 40 10 00       	mov    $0x104000,%ebx
    orl $PTE_P,%ebx
  100046:	83 cb 01             	or     $0x1,%ebx
    orl $PTE_W,%ebx
  100049:	83 cb 02             	or     $0x2,%ebx
    movl %ebx,0x8(%eax)
  10004c:	89 58 08             	mov    %ebx,0x8(%rax)

    # setting the 3rd level page table (PDPE)
    # 4 entries (counter in ecx), point to the next four physical pages (pgdirs)
    # pgdirs in 0xa0000--0xd000
    movl $pdpt1,%edi
  10004f:	bf 00 30 10 00       	mov    $0x103000,%edi
    movl $pde1,%ebx
  100054:	bb 00 50 10 00       	mov    $0x105000,%ebx
    orl $PTE_P,%ebx
  100059:	83 cb 01             	or     $0x1,%ebx
    orl $PTE_W,%ebx
  10005c:	83 cb 02             	or     $0x2,%ebx
    movl %ebx,(%edi)
  10005f:	89 1f                	mov    %ebx,(%rdi)

    movl $pdpt2,%edi
  100061:	bf 00 40 10 00       	mov    $0x104000,%edi
    movl $pde2,%ebx
  100066:	bb 00 60 10 00       	mov    $0x106000,%ebx
    orl $PTE_P,%ebx
  10006b:	83 cb 01             	or     $0x1,%ebx
    orl $PTE_W,%ebx
  10006e:	83 cb 02             	or     $0x2,%ebx
    movl %ebx,(%edi)
  100071:	89 1f                	mov    %ebx,(%rdi)
    
    # setting the pgdir so that the LA=PA
    # mapping first 1G of mem at KERNBASE
    movl $128,%ecx
  100073:	b9 80 00 00 00       	mov    $0x80,%ecx
    # Start at the end and work backwards
    #leal (pml4 + 5*0x1000 - 0x8),%edi
    movl $pde1,%edi
  100078:	bf 00 50 10 00       	mov    $0x105000,%edi
    movl $pde2,%ebx
  10007d:	bb 00 60 10 00       	mov    $0x106000,%ebx
    #64th entry - 0x8004000000
    addl $256,%ebx 
  100082:	81 c3 00 01 00 00    	add    $0x100,%ebx
    # PTE_P|PTE_W|PTE_MBZ
    movl $0x00000183,%eax
  100088:	b8 83 01 00 00       	mov    $0x183,%eax
  1:
     movl %eax,(%edi)
  10008d:	89 07                	mov    %eax,(%rdi)
     movl %eax,(%ebx)
  10008f:	89 03                	mov    %eax,(%rbx)
     addl $0x8,%edi
  100091:	83 c7 08             	add    $0x8,%edi
     addl $0x8,%ebx
  100094:	83 c3 08             	add    $0x8,%ebx
     addl $0x00200000,%eax
  100097:	05 00 00 20 00       	add    $0x200000,%eax
     subl $1,%ecx
  10009c:	83 e9 01             	sub    $0x1,%ecx
     cmp $0x0,%ecx
  10009f:	83 f9 00             	cmp    $0x0,%ecx
     jne 1b
  1000a2:	75 e9                	jne    10008d <_head64+0x8d>
 /*    subl $1,%ecx */
 /*    cmp $0x0,%ecx */
 /*    jne 1b */

    # set the cr3 register
    movl $pml4,%eax
  1000a4:	b8 00 20 10 00       	mov    $0x102000,%eax
    movl %eax, %cr3
  1000a9:	0f 22 d8             	mov    %rax,%cr3

	
    # enable the long mode in MSR
    movl $EFER_MSR,%ecx
  1000ac:	b9 80 00 00 c0       	mov    $0xc0000080,%ecx
    rdmsr
  1000b1:	0f 32                	rdmsr  
    btsl $EFER_LME,%eax
  1000b3:	0f ba e8 08          	bts    $0x8,%eax
    wrmsr
  1000b7:	0f 30                	wrmsr  
    
    # enable paging 
    movl %cr0,%eax
  1000b9:	0f 20 c0             	mov    %cr0,%rax
    orl $CR0_PE,%eax
  1000bc:	83 c8 01             	or     $0x1,%eax
    orl $CR0_PG,%eax
  1000bf:	0d 00 00 00 80       	or     $0x80000000,%eax
    orl $CR0_AM,%eax
  1000c4:	0d 00 00 04 00       	or     $0x40000,%eax
    orl $CR0_WP,%eax
  1000c9:	0d 00 00 01 00       	or     $0x10000,%eax
    orl $CR0_MP,%eax
  1000ce:	83 c8 02             	or     $0x2,%eax
    movl %eax,%cr0
  1000d1:	0f 22 c0             	mov    %rax,%cr0
    #jump to long mode with CS=0 and

    movl $gdtdesc_64,%eax
  1000d4:	b8 18 10 10 00       	mov    $0x101018,%eax
    lgdt (%eax)
  1000d9:	0f 01 10             	lgdt   (%rax)
    pushl $0x8
  1000dc:	6a 08                	pushq  $0x8
    movl $_start,%eax
  1000de:	b8 0c 00 20 00       	mov    $0x20000c,%eax
    pushl %eax
  1000e3:	50                   	push   %rax

00000000001000e4 <jumpto_longmode>:
    
    .globl jumpto_longmode
    .type jumpto_longmode,@function
jumpto_longmode:
    lret
  1000e4:	cb                   	lret   

00000000001000e5 <verify_cpu>:
/*     movabs $_back_from_head64, %rax */
/*     pushq %rax */
/*     lretq */

verify_cpu:
    pushfl                   # get eflags in eax -- standardard way to check for cpuid
  1000e5:	9c                   	pushfq 
    popl %eax
  1000e6:	58                   	pop    %rax
    movl %eax,%ecx
  1000e7:	89 c1                	mov    %eax,%ecx
    xorl $0x200000, %eax
  1000e9:	35 00 00 20 00       	xor    $0x200000,%eax
    pushl %eax
  1000ee:	50                   	push   %rax
    popfl
  1000ef:	9d                   	popfq  
    pushfl
  1000f0:	9c                   	pushfq 
    popl %eax
  1000f1:	58                   	pop    %rax
    cmpl %eax,%ebx
  1000f2:	39 c3                	cmp    %eax,%ebx
    jz verify_cpu_no_longmode   # no cpuid -- no long mode
  1000f4:	74 1c                	je     100112 <verify_cpu_no_longmode>

    movl $0x0,%eax              # see if cpuid 1 is implemented
  1000f6:	b8 00 00 00 00       	mov    $0x0,%eax
    cpuid
  1000fb:	0f a2                	cpuid  
    cmpl $0x1,%eax
  1000fd:	83 f8 01             	cmp    $0x1,%eax
    jb verify_cpu_no_longmode    # cpuid 1 is not implemented
  100100:	72 10                	jb     100112 <verify_cpu_no_longmode>


    mov $0x80000001, %eax
  100102:	b8 01 00 00 80       	mov    $0x80000001,%eax
    cpuid                 
  100107:	0f a2                	cpuid  
    test $(1 << 29),%edx                 #Test if the LM-bit, is set or not.
  100109:	f7 c2 00 00 00 20    	test   $0x20000000,%edx
    jz verify_cpu_no_longmode
  10010f:	74 01                	je     100112 <verify_cpu_no_longmode>

    ret
  100111:	c3                   	retq   

0000000000100112 <verify_cpu_no_longmode>:

verify_cpu_no_longmode:
    jmp verify_cpu_no_longmode
  100112:	eb fe                	jmp    100112 <verify_cpu_no_longmode>
  100114:	66 2e 0f 1f 84 00 00 	nopw   %cs:0x0(%rax,%rax,1)
  10011b:	00 00 00 
  10011e:	66 2e 0f 1f 84 00 00 	nopw   %cs:0x0(%rax,%rax,1)
  100125:	00 00 00 
  100128:	66 2e 0f 1f 84 00 00 	nopw   %cs:0x0(%rax,%rax,1)
  10012f:	00 00 00 
  100132:	66 2e 0f 1f 84 00 00 	nopw   %cs:0x0(%rax,%rax,1)
  100139:	00 00 00 
  10013c:	66 2e 0f 1f 84 00 00 	nopw   %cs:0x0(%rax,%rax,1)
  100143:	00 00 00 
  100146:	66 2e 0f 1f 84 00 00 	nopw   %cs:0x0(%rax,%rax,1)
  10014d:	00 00 00 
  100150:	66 2e 0f 1f 84 00 00 	nopw   %cs:0x0(%rax,%rax,1)
  100157:	00 00 00 
  10015a:	66 2e 0f 1f 84 00 00 	nopw   %cs:0x0(%rax,%rax,1)
  100161:	00 00 00 
  100164:	66 2e 0f 1f 84 00 00 	nopw   %cs:0x0(%rax,%rax,1)
  10016b:	00 00 00 
  10016e:	66 2e 0f 1f 84 00 00 	nopw   %cs:0x0(%rax,%rax,1)
  100175:	00 00 00 
  100178:	66 2e 0f 1f 84 00 00 	nopw   %cs:0x0(%rax,%rax,1)
  10017f:	00 00 00 
  100182:	66 2e 0f 1f 84 00 00 	nopw   %cs:0x0(%rax,%rax,1)
  100189:	00 00 00 
  10018c:	66 2e 0f 1f 84 00 00 	nopw   %cs:0x0(%rax,%rax,1)
  100193:	00 00 00 
  100196:	66 2e 0f 1f 84 00 00 	nopw   %cs:0x0(%rax,%rax,1)
  10019d:	00 00 00 
  1001a0:	66 2e 0f 1f 84 00 00 	nopw   %cs:0x0(%rax,%rax,1)
  1001a7:	00 00 00 
  1001aa:	66 2e 0f 1f 84 00 00 	nopw   %cs:0x0(%rax,%rax,1)
  1001b1:	00 00 00 
  1001b4:	66 2e 0f 1f 84 00 00 	nopw   %cs:0x0(%rax,%rax,1)
  1001bb:	00 00 00 
  1001be:	66 2e 0f 1f 84 00 00 	nopw   %cs:0x0(%rax,%rax,1)
  1001c5:	00 00 00 
  1001c8:	66 2e 0f 1f 84 00 00 	nopw   %cs:0x0(%rax,%rax,1)
  1001cf:	00 00 00 
  1001d2:	66 2e 0f 1f 84 00 00 	nopw   %cs:0x0(%rax,%rax,1)
  1001d9:	00 00 00 
  1001dc:	66 2e 0f 1f 84 00 00 	nopw   %cs:0x0(%rax,%rax,1)
  1001e3:	00 00 00 
  1001e6:	66 2e 0f 1f 84 00 00 	nopw   %cs:0x0(%rax,%rax,1)
  1001ed:	00 00 00 
  1001f0:	66 2e 0f 1f 84 00 00 	nopw   %cs:0x0(%rax,%rax,1)
  1001f7:	00 00 00 
  1001fa:	66 2e 0f 1f 84 00 00 	nopw   %cs:0x0(%rax,%rax,1)
  100201:	00 00 00 
  100204:	66 2e 0f 1f 84 00 00 	nopw   %cs:0x0(%rax,%rax,1)
  10020b:	00 00 00 
  10020e:	66 2e 0f 1f 84 00 00 	nopw   %cs:0x0(%rax,%rax,1)
  100215:	00 00 00 
  100218:	66 2e 0f 1f 84 00 00 	nopw   %cs:0x0(%rax,%rax,1)
  10021f:	00 00 00 
  100222:	66 2e 0f 1f 84 00 00 	nopw   %cs:0x0(%rax,%rax,1)
  100229:	00 00 00 
  10022c:	66 2e 0f 1f 84 00 00 	nopw   %cs:0x0(%rax,%rax,1)
  100233:	00 00 00 
  100236:	66 2e 0f 1f 84 00 00 	nopw   %cs:0x0(%rax,%rax,1)
  10023d:	00 00 00 
  100240:	66 2e 0f 1f 84 00 00 	nopw   %cs:0x0(%rax,%rax,1)
  100247:	00 00 00 
  10024a:	66 2e 0f 1f 84 00 00 	nopw   %cs:0x0(%rax,%rax,1)
  100251:	00 00 00 
  100254:	66 2e 0f 1f 84 00 00 	nopw   %cs:0x0(%rax,%rax,1)
  10025b:	00 00 00 
  10025e:	66 2e 0f 1f 84 00 00 	nopw   %cs:0x0(%rax,%rax,1)
  100265:	00 00 00 
  100268:	66 2e 0f 1f 84 00 00 	nopw   %cs:0x0(%rax,%rax,1)
  10026f:	00 00 00 
  100272:	66 2e 0f 1f 84 00 00 	nopw   %cs:0x0(%rax,%rax,1)
  100279:	00 00 00 
  10027c:	66 2e 0f 1f 84 00 00 	nopw   %cs:0x0(%rax,%rax,1)
  100283:	00 00 00 
  100286:	66 2e 0f 1f 84 00 00 	nopw   %cs:0x0(%rax,%rax,1)
  10028d:	00 00 00 
  100290:	66 2e 0f 1f 84 00 00 	nopw   %cs:0x0(%rax,%rax,1)
  100297:	00 00 00 
  10029a:	66 2e 0f 1f 84 00 00 	nopw   %cs:0x0(%rax,%rax,1)
  1002a1:	00 00 00 
  1002a4:	66 2e 0f 1f 84 00 00 	nopw   %cs:0x0(%rax,%rax,1)
  1002ab:	00 00 00 
  1002ae:	66 2e 0f 1f 84 00 00 	nopw   %cs:0x0(%rax,%rax,1)
  1002b5:	00 00 00 
  1002b8:	66 2e 0f 1f 84 00 00 	nopw   %cs:0x0(%rax,%rax,1)
  1002bf:	00 00 00 
  1002c2:	66 2e 0f 1f 84 00 00 	nopw   %cs:0x0(%rax,%rax,1)
  1002c9:	00 00 00 
  1002cc:	66 2e 0f 1f 84 00 00 	nopw   %cs:0x0(%rax,%rax,1)
  1002d3:	00 00 00 
  1002d6:	66 2e 0f 1f 84 00 00 	nopw   %cs:0x0(%rax,%rax,1)
  1002dd:	00 00 00 
  1002e0:	66 2e 0f 1f 84 00 00 	nopw   %cs:0x0(%rax,%rax,1)
  1002e7:	00 00 00 
  1002ea:	66 2e 0f 1f 84 00 00 	nopw   %cs:0x0(%rax,%rax,1)
  1002f1:	00 00 00 
  1002f4:	66 2e 0f 1f 84 00 00 	nopw   %cs:0x0(%rax,%rax,1)
  1002fb:	00 00 00 
  1002fe:	66 2e 0f 1f 84 00 00 	nopw   %cs:0x0(%rax,%rax,1)
  100305:	00 00 00 
  100308:	66 2e 0f 1f 84 00 00 	nopw   %cs:0x0(%rax,%rax,1)
  10030f:	00 00 00 
  100312:	66 2e 0f 1f 84 00 00 	nopw   %cs:0x0(%rax,%rax,1)
  100319:	00 00 00 
  10031c:	66 2e 0f 1f 84 00 00 	nopw   %cs:0x0(%rax,%rax,1)
  100323:	00 00 00 
  100326:	66 2e 0f 1f 84 00 00 	nopw   %cs:0x0(%rax,%rax,1)
  10032d:	00 00 00 
  100330:	66 2e 0f 1f 84 00 00 	nopw   %cs:0x0(%rax,%rax,1)
  100337:	00 00 00 
  10033a:	66 2e 0f 1f 84 00 00 	nopw   %cs:0x0(%rax,%rax,1)
  100341:	00 00 00 
  100344:	66 2e 0f 1f 84 00 00 	nopw   %cs:0x0(%rax,%rax,1)
  10034b:	00 00 00 
  10034e:	66 2e 0f 1f 84 00 00 	nopw   %cs:0x0(%rax,%rax,1)
  100355:	00 00 00 
  100358:	66 2e 0f 1f 84 00 00 	nopw   %cs:0x0(%rax,%rax,1)
  10035f:	00 00 00 
  100362:	66 2e 0f 1f 84 00 00 	nopw   %cs:0x0(%rax,%rax,1)
  100369:	00 00 00 
  10036c:	66 2e 0f 1f 84 00 00 	nopw   %cs:0x0(%rax,%rax,1)
  100373:	00 00 00 
  100376:	66 2e 0f 1f 84 00 00 	nopw   %cs:0x0(%rax,%rax,1)
  10037d:	00 00 00 
  100380:	66 2e 0f 1f 84 00 00 	nopw   %cs:0x0(%rax,%rax,1)
  100387:	00 00 00 
  10038a:	66 2e 0f 1f 84 00 00 	nopw   %cs:0x0(%rax,%rax,1)
  100391:	00 00 00 
  100394:	66 2e 0f 1f 84 00 00 	nopw   %cs:0x0(%rax,%rax,1)
  10039b:	00 00 00 
  10039e:	66 2e 0f 1f 84 00 00 	nopw   %cs:0x0(%rax,%rax,1)
  1003a5:	00 00 00 
  1003a8:	66 2e 0f 1f 84 00 00 	nopw   %cs:0x0(%rax,%rax,1)
  1003af:	00 00 00 
  1003b2:	66 2e 0f 1f 84 00 00 	nopw   %cs:0x0(%rax,%rax,1)
  1003b9:	00 00 00 
  1003bc:	66 2e 0f 1f 84 00 00 	nopw   %cs:0x0(%rax,%rax,1)
  1003c3:	00 00 00 
  1003c6:	66 2e 0f 1f 84 00 00 	nopw   %cs:0x0(%rax,%rax,1)
  1003cd:	00 00 00 
  1003d0:	66 2e 0f 1f 84 00 00 	nopw   %cs:0x0(%rax,%rax,1)
  1003d7:	00 00 00 
  1003da:	66 2e 0f 1f 84 00 00 	nopw   %cs:0x0(%rax,%rax,1)
  1003e1:	00 00 00 
  1003e4:	66 2e 0f 1f 84 00 00 	nopw   %cs:0x0(%rax,%rax,1)
  1003eb:	00 00 00 
  1003ee:	66 2e 0f 1f 84 00 00 	nopw   %cs:0x0(%rax,%rax,1)
  1003f5:	00 00 00 
  1003f8:	66 2e 0f 1f 84 00 00 	nopw   %cs:0x0(%rax,%rax,1)
  1003ff:	00 00 00 
  100402:	66 2e 0f 1f 84 00 00 	nopw   %cs:0x0(%rax,%rax,1)
  100409:	00 00 00 
  10040c:	66 2e 0f 1f 84 00 00 	nopw   %cs:0x0(%rax,%rax,1)
  100413:	00 00 00 
  100416:	66 2e 0f 1f 84 00 00 	nopw   %cs:0x0(%rax,%rax,1)
  10041d:	00 00 00 
  100420:	66 2e 0f 1f 84 00 00 	nopw   %cs:0x0(%rax,%rax,1)
  100427:	00 00 00 
  10042a:	66 2e 0f 1f 84 00 00 	nopw   %cs:0x0(%rax,%rax,1)
  100431:	00 00 00 
  100434:	66 2e 0f 1f 84 00 00 	nopw   %cs:0x0(%rax,%rax,1)
  10043b:	00 00 00 
  10043e:	66 2e 0f 1f 84 00 00 	nopw   %cs:0x0(%rax,%rax,1)
  100445:	00 00 00 
  100448:	66 2e 0f 1f 84 00 00 	nopw   %cs:0x0(%rax,%rax,1)
  10044f:	00 00 00 
  100452:	66 2e 0f 1f 84 00 00 	nopw   %cs:0x0(%rax,%rax,1)
  100459:	00 00 00 
  10045c:	66 2e 0f 1f 84 00 00 	nopw   %cs:0x0(%rax,%rax,1)
  100463:	00 00 00 
  100466:	66 2e 0f 1f 84 00 00 	nopw   %cs:0x0(%rax,%rax,1)
  10046d:	00 00 00 
  100470:	66 2e 0f 1f 84 00 00 	nopw   %cs:0x0(%rax,%rax,1)
  100477:	00 00 00 
  10047a:	66 2e 0f 1f 84 00 00 	nopw   %cs:0x0(%rax,%rax,1)
  100481:	00 00 00 
  100484:	66 2e 0f 1f 84 00 00 	nopw   %cs:0x0(%rax,%rax,1)
  10048b:	00 00 00 
  10048e:	66 2e 0f 1f 84 00 00 	nopw   %cs:0x0(%rax,%rax,1)
  100495:	00 00 00 
  100498:	66 2e 0f 1f 84 00 00 	nopw   %cs:0x0(%rax,%rax,1)
  10049f:	00 00 00 
  1004a2:	66 2e 0f 1f 84 00 00 	nopw   %cs:0x0(%rax,%rax,1)
  1004a9:	00 00 00 
  1004ac:	66 2e 0f 1f 84 00 00 	nopw   %cs:0x0(%rax,%rax,1)
  1004b3:	00 00 00 
  1004b6:	66 2e 0f 1f 84 00 00 	nopw   %cs:0x0(%rax,%rax,1)
  1004bd:	00 00 00 
  1004c0:	66 2e 0f 1f 84 00 00 	nopw   %cs:0x0(%rax,%rax,1)
  1004c7:	00 00 00 
  1004ca:	66 2e 0f 1f 84 00 00 	nopw   %cs:0x0(%rax,%rax,1)
  1004d1:	00 00 00 
  1004d4:	66 2e 0f 1f 84 00 00 	nopw   %cs:0x0(%rax,%rax,1)
  1004db:	00 00 00 
  1004de:	66 2e 0f 1f 84 00 00 	nopw   %cs:0x0(%rax,%rax,1)
  1004e5:	00 00 00 
  1004e8:	66 2e 0f 1f 84 00 00 	nopw   %cs:0x0(%rax,%rax,1)
  1004ef:	00 00 00 
  1004f2:	66 2e 0f 1f 84 00 00 	nopw   %cs:0x0(%rax,%rax,1)
  1004f9:	00 00 00 
  1004fc:	66 2e 0f 1f 84 00 00 	nopw   %cs:0x0(%rax,%rax,1)
  100503:	00 00 00 
  100506:	66 2e 0f 1f 84 00 00 	nopw   %cs:0x0(%rax,%rax,1)
  10050d:	00 00 00 
  100510:	66 2e 0f 1f 84 00 00 	nopw   %cs:0x0(%rax,%rax,1)
  100517:	00 00 00 
  10051a:	66 2e 0f 1f 84 00 00 	nopw   %cs:0x0(%rax,%rax,1)
  100521:	00 00 00 
  100524:	66 2e 0f 1f 84 00 00 	nopw   %cs:0x0(%rax,%rax,1)
  10052b:	00 00 00 
  10052e:	66 2e 0f 1f 84 00 00 	nopw   %cs:0x0(%rax,%rax,1)
  100535:	00 00 00 
  100538:	66 2e 0f 1f 84 00 00 	nopw   %cs:0x0(%rax,%rax,1)
  10053f:	00 00 00 
  100542:	66 2e 0f 1f 84 00 00 	nopw   %cs:0x0(%rax,%rax,1)
  100549:	00 00 00 
  10054c:	66 2e 0f 1f 84 00 00 	nopw   %cs:0x0(%rax,%rax,1)
  100553:	00 00 00 
  100556:	66 2e 0f 1f 84 00 00 	nopw   %cs:0x0(%rax,%rax,1)
  10055d:	00 00 00 
  100560:	66 2e 0f 1f 84 00 00 	nopw   %cs:0x0(%rax,%rax,1)
  100567:	00 00 00 
  10056a:	66 2e 0f 1f 84 00 00 	nopw   %cs:0x0(%rax,%rax,1)
  100571:	00 00 00 
  100574:	66 2e 0f 1f 84 00 00 	nopw   %cs:0x0(%rax,%rax,1)
  10057b:	00 00 00 
  10057e:	66 2e 0f 1f 84 00 00 	nopw   %cs:0x0(%rax,%rax,1)
  100585:	00 00 00 
  100588:	66 2e 0f 1f 84 00 00 	nopw   %cs:0x0(%rax,%rax,1)
  10058f:	00 00 00 
  100592:	66 2e 0f 1f 84 00 00 	nopw   %cs:0x0(%rax,%rax,1)
  100599:	00 00 00 
  10059c:	66 2e 0f 1f 84 00 00 	nopw   %cs:0x0(%rax,%rax,1)
  1005a3:	00 00 00 
  1005a6:	66 2e 0f 1f 84 00 00 	nopw   %cs:0x0(%rax,%rax,1)
  1005ad:	00 00 00 
  1005b0:	66 2e 0f 1f 84 00 00 	nopw   %cs:0x0(%rax,%rax,1)
  1005b7:	00 00 00 
  1005ba:	66 2e 0f 1f 84 00 00 	nopw   %cs:0x0(%rax,%rax,1)
  1005c1:	00 00 00 
  1005c4:	66 2e 0f 1f 84 00 00 	nopw   %cs:0x0(%rax,%rax,1)
  1005cb:	00 00 00 
  1005ce:	66 2e 0f 1f 84 00 00 	nopw   %cs:0x0(%rax,%rax,1)
  1005d5:	00 00 00 
  1005d8:	66 2e 0f 1f 84 00 00 	nopw   %cs:0x0(%rax,%rax,1)
  1005df:	00 00 00 
  1005e2:	66 2e 0f 1f 84 00 00 	nopw   %cs:0x0(%rax,%rax,1)
  1005e9:	00 00 00 
  1005ec:	66 2e 0f 1f 84 00 00 	nopw   %cs:0x0(%rax,%rax,1)
  1005f3:	00 00 00 
  1005f6:	66 2e 0f 1f 84 00 00 	nopw   %cs:0x0(%rax,%rax,1)
  1005fd:	00 00 00 
  100600:	66 2e 0f 1f 84 00 00 	nopw   %cs:0x0(%rax,%rax,1)
  100607:	00 00 00 
  10060a:	66 2e 0f 1f 84 00 00 	nopw   %cs:0x0(%rax,%rax,1)
  100611:	00 00 00 
  100614:	66 2e 0f 1f 84 00 00 	nopw   %cs:0x0(%rax,%rax,1)
  10061b:	00 00 00 
  10061e:	66 2e 0f 1f 84 00 00 	nopw   %cs:0x0(%rax,%rax,1)
  100625:	00 00 00 
  100628:	66 2e 0f 1f 84 00 00 	nopw   %cs:0x0(%rax,%rax,1)
  10062f:	00 00 00 
  100632:	66 2e 0f 1f 84 00 00 	nopw   %cs:0x0(%rax,%rax,1)
  100639:	00 00 00 
  10063c:	66 2e 0f 1f 84 00 00 	nopw   %cs:0x0(%rax,%rax,1)
  100643:	00 00 00 
  100646:	66 2e 0f 1f 84 00 00 	nopw   %cs:0x0(%rax,%rax,1)
  10064d:	00 00 00 
  100650:	66 2e 0f 1f 84 00 00 	nopw   %cs:0x0(%rax,%rax,1)
  100657:	00 00 00 
  10065a:	66 2e 0f 1f 84 00 00 	nopw   %cs:0x0(%rax,%rax,1)
  100661:	00 00 00 
  100664:	66 2e 0f 1f 84 00 00 	nopw   %cs:0x0(%rax,%rax,1)
  10066b:	00 00 00 
  10066e:	66 2e 0f 1f 84 00 00 	nopw   %cs:0x0(%rax,%rax,1)
  100675:	00 00 00 
  100678:	66 2e 0f 1f 84 00 00 	nopw   %cs:0x0(%rax,%rax,1)
  10067f:	00 00 00 
  100682:	66 2e 0f 1f 84 00 00 	nopw   %cs:0x0(%rax,%rax,1)
  100689:	00 00 00 
  10068c:	66 2e 0f 1f 84 00 00 	nopw   %cs:0x0(%rax,%rax,1)
  100693:	00 00 00 
  100696:	66 2e 0f 1f 84 00 00 	nopw   %cs:0x0(%rax,%rax,1)
  10069d:	00 00 00 
  1006a0:	66 2e 0f 1f 84 00 00 	nopw   %cs:0x0(%rax,%rax,1)
  1006a7:	00 00 00 
  1006aa:	66 2e 0f 1f 84 00 00 	nopw   %cs:0x0(%rax,%rax,1)
  1006b1:	00 00 00 
  1006b4:	66 2e 0f 1f 84 00 00 	nopw   %cs:0x0(%rax,%rax,1)
  1006bb:	00 00 00 
  1006be:	66 2e 0f 1f 84 00 00 	nopw   %cs:0x0(%rax,%rax,1)
  1006c5:	00 00 00 
  1006c8:	66 2e 0f 1f 84 00 00 	nopw   %cs:0x0(%rax,%rax,1)
  1006cf:	00 00 00 
  1006d2:	66 2e 0f 1f 84 00 00 	nopw   %cs:0x0(%rax,%rax,1)
  1006d9:	00 00 00 
  1006dc:	66 2e 0f 1f 84 00 00 	nopw   %cs:0x0(%rax,%rax,1)
  1006e3:	00 00 00 
  1006e6:	66 2e 0f 1f 84 00 00 	nopw   %cs:0x0(%rax,%rax,1)
  1006ed:	00 00 00 
  1006f0:	66 2e 0f 1f 84 00 00 	nopw   %cs:0x0(%rax,%rax,1)
  1006f7:	00 00 00 
  1006fa:	66 2e 0f 1f 84 00 00 	nopw   %cs:0x0(%rax,%rax,1)
  100701:	00 00 00 
  100704:	66 2e 0f 1f 84 00 00 	nopw   %cs:0x0(%rax,%rax,1)
  10070b:	00 00 00 
  10070e:	66 2e 0f 1f 84 00 00 	nopw   %cs:0x0(%rax,%rax,1)
  100715:	00 00 00 
  100718:	66 2e 0f 1f 84 00 00 	nopw   %cs:0x0(%rax,%rax,1)
  10071f:	00 00 00 
  100722:	66 2e 0f 1f 84 00 00 	nopw   %cs:0x0(%rax,%rax,1)
  100729:	00 00 00 
  10072c:	66 2e 0f 1f 84 00 00 	nopw   %cs:0x0(%rax,%rax,1)
  100733:	00 00 00 
  100736:	66 2e 0f 1f 84 00 00 	nopw   %cs:0x0(%rax,%rax,1)
  10073d:	00 00 00 
  100740:	66 2e 0f 1f 84 00 00 	nopw   %cs:0x0(%rax,%rax,1)
  100747:	00 00 00 
  10074a:	66 2e 0f 1f 84 00 00 	nopw   %cs:0x0(%rax,%rax,1)
  100751:	00 00 00 
  100754:	66 2e 0f 1f 84 00 00 	nopw   %cs:0x0(%rax,%rax,1)
  10075b:	00 00 00 
  10075e:	66 2e 0f 1f 84 00 00 	nopw   %cs:0x0(%rax,%rax,1)
  100765:	00 00 00 
  100768:	66 2e 0f 1f 84 00 00 	nopw   %cs:0x0(%rax,%rax,1)
  10076f:	00 00 00 
  100772:	66 2e 0f 1f 84 00 00 	nopw   %cs:0x0(%rax,%rax,1)
  100779:	00 00 00 
  10077c:	66 2e 0f 1f 84 00 00 	nopw   %cs:0x0(%rax,%rax,1)
  100783:	00 00 00 
  100786:	66 2e 0f 1f 84 00 00 	nopw   %cs:0x0(%rax,%rax,1)
  10078d:	00 00 00 
  100790:	66 2e 0f 1f 84 00 00 	nopw   %cs:0x0(%rax,%rax,1)
  100797:	00 00 00 
  10079a:	66 2e 0f 1f 84 00 00 	nopw   %cs:0x0(%rax,%rax,1)
  1007a1:	00 00 00 
  1007a4:	66 2e 0f 1f 84 00 00 	nopw   %cs:0x0(%rax,%rax,1)
  1007ab:	00 00 00 
  1007ae:	66 2e 0f 1f 84 00 00 	nopw   %cs:0x0(%rax,%rax,1)
  1007b5:	00 00 00 
  1007b8:	66 2e 0f 1f 84 00 00 	nopw   %cs:0x0(%rax,%rax,1)
  1007bf:	00 00 00 
  1007c2:	66 2e 0f 1f 84 00 00 	nopw   %cs:0x0(%rax,%rax,1)
  1007c9:	00 00 00 
  1007cc:	66 2e 0f 1f 84 00 00 	nopw   %cs:0x0(%rax,%rax,1)
  1007d3:	00 00 00 
  1007d6:	66 2e 0f 1f 84 00 00 	nopw   %cs:0x0(%rax,%rax,1)
  1007dd:	00 00 00 
  1007e0:	66 2e 0f 1f 84 00 00 	nopw   %cs:0x0(%rax,%rax,1)
  1007e7:	00 00 00 
  1007ea:	66 2e 0f 1f 84 00 00 	nopw   %cs:0x0(%rax,%rax,1)
  1007f1:	00 00 00 
  1007f4:	66 2e 0f 1f 84 00 00 	nopw   %cs:0x0(%rax,%rax,1)
  1007fb:	00 00 00 
  1007fe:	66 2e 0f 1f 84 00 00 	nopw   %cs:0x0(%rax,%rax,1)
  100805:	00 00 00 
  100808:	66 2e 0f 1f 84 00 00 	nopw   %cs:0x0(%rax,%rax,1)
  10080f:	00 00 00 
  100812:	66 2e 0f 1f 84 00 00 	nopw   %cs:0x0(%rax,%rax,1)
  100819:	00 00 00 
  10081c:	66 2e 0f 1f 84 00 00 	nopw   %cs:0x0(%rax,%rax,1)
  100823:	00 00 00 
  100826:	66 2e 0f 1f 84 00 00 	nopw   %cs:0x0(%rax,%rax,1)
  10082d:	00 00 00 
  100830:	66 2e 0f 1f 84 00 00 	nopw   %cs:0x0(%rax,%rax,1)
  100837:	00 00 00 
  10083a:	66 2e 0f 1f 84 00 00 	nopw   %cs:0x0(%rax,%rax,1)
  100841:	00 00 00 
  100844:	66 2e 0f 1f 84 00 00 	nopw   %cs:0x0(%rax,%rax,1)
  10084b:	00 00 00 
  10084e:	66 2e 0f 1f 84 00 00 	nopw   %cs:0x0(%rax,%rax,1)
  100855:	00 00 00 
  100858:	66 2e 0f 1f 84 00 00 	nopw   %cs:0x0(%rax,%rax,1)
  10085f:	00 00 00 
  100862:	66 2e 0f 1f 84 00 00 	nopw   %cs:0x0(%rax,%rax,1)
  100869:	00 00 00 
  10086c:	66 2e 0f 1f 84 00 00 	nopw   %cs:0x0(%rax,%rax,1)
  100873:	00 00 00 
  100876:	66 2e 0f 1f 84 00 00 	nopw   %cs:0x0(%rax,%rax,1)
  10087d:	00 00 00 
  100880:	66 2e 0f 1f 84 00 00 	nopw   %cs:0x0(%rax,%rax,1)
  100887:	00 00 00 
  10088a:	66 2e 0f 1f 84 00 00 	nopw   %cs:0x0(%rax,%rax,1)
  100891:	00 00 00 
  100894:	66 2e 0f 1f 84 00 00 	nopw   %cs:0x0(%rax,%rax,1)
  10089b:	00 00 00 
  10089e:	66 2e 0f 1f 84 00 00 	nopw   %cs:0x0(%rax,%rax,1)
  1008a5:	00 00 00 
  1008a8:	66 2e 0f 1f 84 00 00 	nopw   %cs:0x0(%rax,%rax,1)
  1008af:	00 00 00 
  1008b2:	66 2e 0f 1f 84 00 00 	nopw   %cs:0x0(%rax,%rax,1)
  1008b9:	00 00 00 
  1008bc:	66 2e 0f 1f 84 00 00 	nopw   %cs:0x0(%rax,%rax,1)
  1008c3:	00 00 00 
  1008c6:	66 2e 0f 1f 84 00 00 	nopw   %cs:0x0(%rax,%rax,1)
  1008cd:	00 00 00 
  1008d0:	66 2e 0f 1f 84 00 00 	nopw   %cs:0x0(%rax,%rax,1)
  1008d7:	00 00 00 
  1008da:	66 2e 0f 1f 84 00 00 	nopw   %cs:0x0(%rax,%rax,1)
  1008e1:	00 00 00 
  1008e4:	66 2e 0f 1f 84 00 00 	nopw   %cs:0x0(%rax,%rax,1)
  1008eb:	00 00 00 
  1008ee:	66 2e 0f 1f 84 00 00 	nopw   %cs:0x0(%rax,%rax,1)
  1008f5:	00 00 00 
  1008f8:	66 2e 0f 1f 84 00 00 	nopw   %cs:0x0(%rax,%rax,1)
  1008ff:	00 00 00 
  100902:	66 2e 0f 1f 84 00 00 	nopw   %cs:0x0(%rax,%rax,1)
  100909:	00 00 00 
  10090c:	66 2e 0f 1f 84 00 00 	nopw   %cs:0x0(%rax,%rax,1)
  100913:	00 00 00 
  100916:	66 2e 0f 1f 84 00 00 	nopw   %cs:0x0(%rax,%rax,1)
  10091d:	00 00 00 
  100920:	66 2e 0f 1f 84 00 00 	nopw   %cs:0x0(%rax,%rax,1)
  100927:	00 00 00 
  10092a:	66 2e 0f 1f 84 00 00 	nopw   %cs:0x0(%rax,%rax,1)
  100931:	00 00 00 
  100934:	66 2e 0f 1f 84 00 00 	nopw   %cs:0x0(%rax,%rax,1)
  10093b:	00 00 00 
  10093e:	66 2e 0f 1f 84 00 00 	nopw   %cs:0x0(%rax,%rax,1)
  100945:	00 00 00 
  100948:	66 2e 0f 1f 84 00 00 	nopw   %cs:0x0(%rax,%rax,1)
  10094f:	00 00 00 
  100952:	66 2e 0f 1f 84 00 00 	nopw   %cs:0x0(%rax,%rax,1)
  100959:	00 00 00 
  10095c:	66 2e 0f 1f 84 00 00 	nopw   %cs:0x0(%rax,%rax,1)
  100963:	00 00 00 
  100966:	66 2e 0f 1f 84 00 00 	nopw   %cs:0x0(%rax,%rax,1)
  10096d:	00 00 00 
  100970:	66 2e 0f 1f 84 00 00 	nopw   %cs:0x0(%rax,%rax,1)
  100977:	00 00 00 
  10097a:	66 2e 0f 1f 84 00 00 	nopw   %cs:0x0(%rax,%rax,1)
  100981:	00 00 00 
  100984:	66 2e 0f 1f 84 00 00 	nopw   %cs:0x0(%rax,%rax,1)
  10098b:	00 00 00 
  10098e:	66 2e 0f 1f 84 00 00 	nopw   %cs:0x0(%rax,%rax,1)
  100995:	00 00 00 
  100998:	66 2e 0f 1f 84 00 00 	nopw   %cs:0x0(%rax,%rax,1)
  10099f:	00 00 00 
  1009a2:	66 2e 0f 1f 84 00 00 	nopw   %cs:0x0(%rax,%rax,1)
  1009a9:	00 00 00 
  1009ac:	66 2e 0f 1f 84 00 00 	nopw   %cs:0x0(%rax,%rax,1)
  1009b3:	00 00 00 
  1009b6:	66 2e 0f 1f 84 00 00 	nopw   %cs:0x0(%rax,%rax,1)
  1009bd:	00 00 00 
  1009c0:	66 2e 0f 1f 84 00 00 	nopw   %cs:0x0(%rax,%rax,1)
  1009c7:	00 00 00 
  1009ca:	66 2e 0f 1f 84 00 00 	nopw   %cs:0x0(%rax,%rax,1)
  1009d1:	00 00 00 
  1009d4:	66 2e 0f 1f 84 00 00 	nopw   %cs:0x0(%rax,%rax,1)
  1009db:	00 00 00 
  1009de:	66 2e 0f 1f 84 00 00 	nopw   %cs:0x0(%rax,%rax,1)
  1009e5:	00 00 00 
  1009e8:	66 2e 0f 1f 84 00 00 	nopw   %cs:0x0(%rax,%rax,1)
  1009ef:	00 00 00 
  1009f2:	66 2e 0f 1f 84 00 00 	nopw   %cs:0x0(%rax,%rax,1)
  1009f9:	00 00 00 
  1009fc:	66 2e 0f 1f 84 00 00 	nopw   %cs:0x0(%rax,%rax,1)
  100a03:	00 00 00 
  100a06:	66 2e 0f 1f 84 00 00 	nopw   %cs:0x0(%rax,%rax,1)
  100a0d:	00 00 00 
  100a10:	66 2e 0f 1f 84 00 00 	nopw   %cs:0x0(%rax,%rax,1)
  100a17:	00 00 00 
  100a1a:	66 2e 0f 1f 84 00 00 	nopw   %cs:0x0(%rax,%rax,1)
  100a21:	00 00 00 
  100a24:	66 2e 0f 1f 84 00 00 	nopw   %cs:0x0(%rax,%rax,1)
  100a2b:	00 00 00 
  100a2e:	66 2e 0f 1f 84 00 00 	nopw   %cs:0x0(%rax,%rax,1)
  100a35:	00 00 00 
  100a38:	66 2e 0f 1f 84 00 00 	nopw   %cs:0x0(%rax,%rax,1)
  100a3f:	00 00 00 
  100a42:	66 2e 0f 1f 84 00 00 	nopw   %cs:0x0(%rax,%rax,1)
  100a49:	00 00 00 
  100a4c:	66 2e 0f 1f 84 00 00 	nopw   %cs:0x0(%rax,%rax,1)
  100a53:	00 00 00 
  100a56:	66 2e 0f 1f 84 00 00 	nopw   %cs:0x0(%rax,%rax,1)
  100a5d:	00 00 00 
  100a60:	66 2e 0f 1f 84 00 00 	nopw   %cs:0x0(%rax,%rax,1)
  100a67:	00 00 00 
  100a6a:	66 2e 0f 1f 84 00 00 	nopw   %cs:0x0(%rax,%rax,1)
  100a71:	00 00 00 
  100a74:	66 2e 0f 1f 84 00 00 	nopw   %cs:0x0(%rax,%rax,1)
  100a7b:	00 00 00 
  100a7e:	66 2e 0f 1f 84 00 00 	nopw   %cs:0x0(%rax,%rax,1)
  100a85:	00 00 00 
  100a88:	66 2e 0f 1f 84 00 00 	nopw   %cs:0x0(%rax,%rax,1)
  100a8f:	00 00 00 
  100a92:	66 2e 0f 1f 84 00 00 	nopw   %cs:0x0(%rax,%rax,1)
  100a99:	00 00 00 
  100a9c:	66 2e 0f 1f 84 00 00 	nopw   %cs:0x0(%rax,%rax,1)
  100aa3:	00 00 00 
  100aa6:	66 2e 0f 1f 84 00 00 	nopw   %cs:0x0(%rax,%rax,1)
  100aad:	00 00 00 
  100ab0:	66 2e 0f 1f 84 00 00 	nopw   %cs:0x0(%rax,%rax,1)
  100ab7:	00 00 00 
  100aba:	66 2e 0f 1f 84 00 00 	nopw   %cs:0x0(%rax,%rax,1)
  100ac1:	00 00 00 
  100ac4:	66 2e 0f 1f 84 00 00 	nopw   %cs:0x0(%rax,%rax,1)
  100acb:	00 00 00 
  100ace:	66 2e 0f 1f 84 00 00 	nopw   %cs:0x0(%rax,%rax,1)
  100ad5:	00 00 00 
  100ad8:	66 2e 0f 1f 84 00 00 	nopw   %cs:0x0(%rax,%rax,1)
  100adf:	00 00 00 
  100ae2:	66 2e 0f 1f 84 00 00 	nopw   %cs:0x0(%rax,%rax,1)
  100ae9:	00 00 00 
  100aec:	66 2e 0f 1f 84 00 00 	nopw   %cs:0x0(%rax,%rax,1)
  100af3:	00 00 00 
  100af6:	66 2e 0f 1f 84 00 00 	nopw   %cs:0x0(%rax,%rax,1)
  100afd:	00 00 00 
  100b00:	66 2e 0f 1f 84 00 00 	nopw   %cs:0x0(%rax,%rax,1)
  100b07:	00 00 00 
  100b0a:	66 2e 0f 1f 84 00 00 	nopw   %cs:0x0(%rax,%rax,1)
  100b11:	00 00 00 
  100b14:	66 2e 0f 1f 84 00 00 	nopw   %cs:0x0(%rax,%rax,1)
  100b1b:	00 00 00 
  100b1e:	66 2e 0f 1f 84 00 00 	nopw   %cs:0x0(%rax,%rax,1)
  100b25:	00 00 00 
  100b28:	66 2e 0f 1f 84 00 00 	nopw   %cs:0x0(%rax,%rax,1)
  100b2f:	00 00 00 
  100b32:	66 2e 0f 1f 84 00 00 	nopw   %cs:0x0(%rax,%rax,1)
  100b39:	00 00 00 
  100b3c:	66 2e 0f 1f 84 00 00 	nopw   %cs:0x0(%rax,%rax,1)
  100b43:	00 00 00 
  100b46:	66 2e 0f 1f 84 00 00 	nopw   %cs:0x0(%rax,%rax,1)
  100b4d:	00 00 00 
  100b50:	66 2e 0f 1f 84 00 00 	nopw   %cs:0x0(%rax,%rax,1)
  100b57:	00 00 00 
  100b5a:	66 2e 0f 1f 84 00 00 	nopw   %cs:0x0(%rax,%rax,1)
  100b61:	00 00 00 
  100b64:	66 2e 0f 1f 84 00 00 	nopw   %cs:0x0(%rax,%rax,1)
  100b6b:	00 00 00 
  100b6e:	66 2e 0f 1f 84 00 00 	nopw   %cs:0x0(%rax,%rax,1)
  100b75:	00 00 00 
  100b78:	66 2e 0f 1f 84 00 00 	nopw   %cs:0x0(%rax,%rax,1)
  100b7f:	00 00 00 
  100b82:	66 2e 0f 1f 84 00 00 	nopw   %cs:0x0(%rax,%rax,1)
  100b89:	00 00 00 
  100b8c:	66 2e 0f 1f 84 00 00 	nopw   %cs:0x0(%rax,%rax,1)
  100b93:	00 00 00 
  100b96:	66 2e 0f 1f 84 00 00 	nopw   %cs:0x0(%rax,%rax,1)
  100b9d:	00 00 00 
  100ba0:	66 2e 0f 1f 84 00 00 	nopw   %cs:0x0(%rax,%rax,1)
  100ba7:	00 00 00 
  100baa:	66 2e 0f 1f 84 00 00 	nopw   %cs:0x0(%rax,%rax,1)
  100bb1:	00 00 00 
  100bb4:	66 2e 0f 1f 84 00 00 	nopw   %cs:0x0(%rax,%rax,1)
  100bbb:	00 00 00 
  100bbe:	66 2e 0f 1f 84 00 00 	nopw   %cs:0x0(%rax,%rax,1)
  100bc5:	00 00 00 
  100bc8:	66 2e 0f 1f 84 00 00 	nopw   %cs:0x0(%rax,%rax,1)
  100bcf:	00 00 00 
  100bd2:	66 2e 0f 1f 84 00 00 	nopw   %cs:0x0(%rax,%rax,1)
  100bd9:	00 00 00 
  100bdc:	66 2e 0f 1f 84 00 00 	nopw   %cs:0x0(%rax,%rax,1)
  100be3:	00 00 00 
  100be6:	66 2e 0f 1f 84 00 00 	nopw   %cs:0x0(%rax,%rax,1)
  100bed:	00 00 00 
  100bf0:	66 2e 0f 1f 84 00 00 	nopw   %cs:0x0(%rax,%rax,1)
  100bf7:	00 00 00 
  100bfa:	66 2e 0f 1f 84 00 00 	nopw   %cs:0x0(%rax,%rax,1)
  100c01:	00 00 00 
  100c04:	66 2e 0f 1f 84 00 00 	nopw   %cs:0x0(%rax,%rax,1)
  100c0b:	00 00 00 
  100c0e:	66 2e 0f 1f 84 00 00 	nopw   %cs:0x0(%rax,%rax,1)
  100c15:	00 00 00 
  100c18:	66 2e 0f 1f 84 00 00 	nopw   %cs:0x0(%rax,%rax,1)
  100c1f:	00 00 00 
  100c22:	66 2e 0f 1f 84 00 00 	nopw   %cs:0x0(%rax,%rax,1)
  100c29:	00 00 00 
  100c2c:	66 2e 0f 1f 84 00 00 	nopw   %cs:0x0(%rax,%rax,1)
  100c33:	00 00 00 
  100c36:	66 2e 0f 1f 84 00 00 	nopw   %cs:0x0(%rax,%rax,1)
  100c3d:	00 00 00 
  100c40:	66 2e 0f 1f 84 00 00 	nopw   %cs:0x0(%rax,%rax,1)
  100c47:	00 00 00 
  100c4a:	66 2e 0f 1f 84 00 00 	nopw   %cs:0x0(%rax,%rax,1)
  100c51:	00 00 00 
  100c54:	66 2e 0f 1f 84 00 00 	nopw   %cs:0x0(%rax,%rax,1)
  100c5b:	00 00 00 
  100c5e:	66 2e 0f 1f 84 00 00 	nopw   %cs:0x0(%rax,%rax,1)
  100c65:	00 00 00 
  100c68:	66 2e 0f 1f 84 00 00 	nopw   %cs:0x0(%rax,%rax,1)
  100c6f:	00 00 00 
  100c72:	66 2e 0f 1f 84 00 00 	nopw   %cs:0x0(%rax,%rax,1)
  100c79:	00 00 00 
  100c7c:	66 2e 0f 1f 84 00 00 	nopw   %cs:0x0(%rax,%rax,1)
  100c83:	00 00 00 
  100c86:	66 2e 0f 1f 84 00 00 	nopw   %cs:0x0(%rax,%rax,1)
  100c8d:	00 00 00 
  100c90:	66 2e 0f 1f 84 00 00 	nopw   %cs:0x0(%rax,%rax,1)
  100c97:	00 00 00 
  100c9a:	66 2e 0f 1f 84 00 00 	nopw   %cs:0x0(%rax,%rax,1)
  100ca1:	00 00 00 
  100ca4:	66 2e 0f 1f 84 00 00 	nopw   %cs:0x0(%rax,%rax,1)
  100cab:	00 00 00 
  100cae:	66 2e 0f 1f 84 00 00 	nopw   %cs:0x0(%rax,%rax,1)
  100cb5:	00 00 00 
  100cb8:	66 2e 0f 1f 84 00 00 	nopw   %cs:0x0(%rax,%rax,1)
  100cbf:	00 00 00 
  100cc2:	66 2e 0f 1f 84 00 00 	nopw   %cs:0x0(%rax,%rax,1)
  100cc9:	00 00 00 
  100ccc:	66 2e 0f 1f 84 00 00 	nopw   %cs:0x0(%rax,%rax,1)
  100cd3:	00 00 00 
  100cd6:	66 2e 0f 1f 84 00 00 	nopw   %cs:0x0(%rax,%rax,1)
  100cdd:	00 00 00 
  100ce0:	66 2e 0f 1f 84 00 00 	nopw   %cs:0x0(%rax,%rax,1)
  100ce7:	00 00 00 
  100cea:	66 2e 0f 1f 84 00 00 	nopw   %cs:0x0(%rax,%rax,1)
  100cf1:	00 00 00 
  100cf4:	66 2e 0f 1f 84 00 00 	nopw   %cs:0x0(%rax,%rax,1)
  100cfb:	00 00 00 
  100cfe:	66 2e 0f 1f 84 00 00 	nopw   %cs:0x0(%rax,%rax,1)
  100d05:	00 00 00 
  100d08:	66 2e 0f 1f 84 00 00 	nopw   %cs:0x0(%rax,%rax,1)
  100d0f:	00 00 00 
  100d12:	66 2e 0f 1f 84 00 00 	nopw   %cs:0x0(%rax,%rax,1)
  100d19:	00 00 00 
  100d1c:	66 2e 0f 1f 84 00 00 	nopw   %cs:0x0(%rax,%rax,1)
  100d23:	00 00 00 
  100d26:	66 2e 0f 1f 84 00 00 	nopw   %cs:0x0(%rax,%rax,1)
  100d2d:	00 00 00 
  100d30:	66 2e 0f 1f 84 00 00 	nopw   %cs:0x0(%rax,%rax,1)
  100d37:	00 00 00 
  100d3a:	66 2e 0f 1f 84 00 00 	nopw   %cs:0x0(%rax,%rax,1)
  100d41:	00 00 00 
  100d44:	66 2e 0f 1f 84 00 00 	nopw   %cs:0x0(%rax,%rax,1)
  100d4b:	00 00 00 
  100d4e:	66 2e 0f 1f 84 00 00 	nopw   %cs:0x0(%rax,%rax,1)
  100d55:	00 00 00 
  100d58:	66 2e 0f 1f 84 00 00 	nopw   %cs:0x0(%rax,%rax,1)
  100d5f:	00 00 00 
  100d62:	66 2e 0f 1f 84 00 00 	nopw   %cs:0x0(%rax,%rax,1)
  100d69:	00 00 00 
  100d6c:	66 2e 0f 1f 84 00 00 	nopw   %cs:0x0(%rax,%rax,1)
  100d73:	00 00 00 
  100d76:	66 2e 0f 1f 84 00 00 	nopw   %cs:0x0(%rax,%rax,1)
  100d7d:	00 00 00 
  100d80:	66 2e 0f 1f 84 00 00 	nopw   %cs:0x0(%rax,%rax,1)
  100d87:	00 00 00 
  100d8a:	66 2e 0f 1f 84 00 00 	nopw   %cs:0x0(%rax,%rax,1)
  100d91:	00 00 00 
  100d94:	66 2e 0f 1f 84 00 00 	nopw   %cs:0x0(%rax,%rax,1)
  100d9b:	00 00 00 
  100d9e:	66 2e 0f 1f 84 00 00 	nopw   %cs:0x0(%rax,%rax,1)
  100da5:	00 00 00 
  100da8:	66 2e 0f 1f 84 00 00 	nopw   %cs:0x0(%rax,%rax,1)
  100daf:	00 00 00 
  100db2:	66 2e 0f 1f 84 00 00 	nopw   %cs:0x0(%rax,%rax,1)
  100db9:	00 00 00 
  100dbc:	66 2e 0f 1f 84 00 00 	nopw   %cs:0x0(%rax,%rax,1)
  100dc3:	00 00 00 
  100dc6:	66 2e 0f 1f 84 00 00 	nopw   %cs:0x0(%rax,%rax,1)
  100dcd:	00 00 00 
  100dd0:	66 2e 0f 1f 84 00 00 	nopw   %cs:0x0(%rax,%rax,1)
  100dd7:	00 00 00 
  100dda:	66 2e 0f 1f 84 00 00 	nopw   %cs:0x0(%rax,%rax,1)
  100de1:	00 00 00 
  100de4:	66 2e 0f 1f 84 00 00 	nopw   %cs:0x0(%rax,%rax,1)
  100deb:	00 00 00 
  100dee:	66 2e 0f 1f 84 00 00 	nopw   %cs:0x0(%rax,%rax,1)
  100df5:	00 00 00 
  100df8:	66 2e 0f 1f 84 00 00 	nopw   %cs:0x0(%rax,%rax,1)
  100dff:	00 00 00 
  100e02:	66 2e 0f 1f 84 00 00 	nopw   %cs:0x0(%rax,%rax,1)
  100e09:	00 00 00 
  100e0c:	66 2e 0f 1f 84 00 00 	nopw   %cs:0x0(%rax,%rax,1)
  100e13:	00 00 00 
  100e16:	66 2e 0f 1f 84 00 00 	nopw   %cs:0x0(%rax,%rax,1)
  100e1d:	00 00 00 
  100e20:	66 2e 0f 1f 84 00 00 	nopw   %cs:0x0(%rax,%rax,1)
  100e27:	00 00 00 
  100e2a:	66 2e 0f 1f 84 00 00 	nopw   %cs:0x0(%rax,%rax,1)
  100e31:	00 00 00 
  100e34:	66 2e 0f 1f 84 00 00 	nopw   %cs:0x0(%rax,%rax,1)
  100e3b:	00 00 00 
  100e3e:	66 2e 0f 1f 84 00 00 	nopw   %cs:0x0(%rax,%rax,1)
  100e45:	00 00 00 
  100e48:	66 2e 0f 1f 84 00 00 	nopw   %cs:0x0(%rax,%rax,1)
  100e4f:	00 00 00 
  100e52:	66 2e 0f 1f 84 00 00 	nopw   %cs:0x0(%rax,%rax,1)
  100e59:	00 00 00 
  100e5c:	66 2e 0f 1f 84 00 00 	nopw   %cs:0x0(%rax,%rax,1)
  100e63:	00 00 00 
  100e66:	66 2e 0f 1f 84 00 00 	nopw   %cs:0x0(%rax,%rax,1)
  100e6d:	00 00 00 
  100e70:	66 2e 0f 1f 84 00 00 	nopw   %cs:0x0(%rax,%rax,1)
  100e77:	00 00 00 
  100e7a:	66 2e 0f 1f 84 00 00 	nopw   %cs:0x0(%rax,%rax,1)
  100e81:	00 00 00 
  100e84:	66 2e 0f 1f 84 00 00 	nopw   %cs:0x0(%rax,%rax,1)
  100e8b:	00 00 00 
  100e8e:	66 2e 0f 1f 84 00 00 	nopw   %cs:0x0(%rax,%rax,1)
  100e95:	00 00 00 
  100e98:	66 2e 0f 1f 84 00 00 	nopw   %cs:0x0(%rax,%rax,1)
  100e9f:	00 00 00 
  100ea2:	66 2e 0f 1f 84 00 00 	nopw   %cs:0x0(%rax,%rax,1)
  100ea9:	00 00 00 
  100eac:	66 2e 0f 1f 84 00 00 	nopw   %cs:0x0(%rax,%rax,1)
  100eb3:	00 00 00 
  100eb6:	66 2e 0f 1f 84 00 00 	nopw   %cs:0x0(%rax,%rax,1)
  100ebd:	00 00 00 
  100ec0:	66 2e 0f 1f 84 00 00 	nopw   %cs:0x0(%rax,%rax,1)
  100ec7:	00 00 00 
  100eca:	66 2e 0f 1f 84 00 00 	nopw   %cs:0x0(%rax,%rax,1)
  100ed1:	00 00 00 
  100ed4:	66 2e 0f 1f 84 00 00 	nopw   %cs:0x0(%rax,%rax,1)
  100edb:	00 00 00 
  100ede:	66 2e 0f 1f 84 00 00 	nopw   %cs:0x0(%rax,%rax,1)
  100ee5:	00 00 00 
  100ee8:	66 2e 0f 1f 84 00 00 	nopw   %cs:0x0(%rax,%rax,1)
  100eef:	00 00 00 
  100ef2:	66 2e 0f 1f 84 00 00 	nopw   %cs:0x0(%rax,%rax,1)
  100ef9:	00 00 00 
  100efc:	66 2e 0f 1f 84 00 00 	nopw   %cs:0x0(%rax,%rax,1)
  100f03:	00 00 00 
  100f06:	66 2e 0f 1f 84 00 00 	nopw   %cs:0x0(%rax,%rax,1)
  100f0d:	00 00 00 
  100f10:	66 2e 0f 1f 84 00 00 	nopw   %cs:0x0(%rax,%rax,1)
  100f17:	00 00 00 
  100f1a:	66 2e 0f 1f 84 00 00 	nopw   %cs:0x0(%rax,%rax,1)
  100f21:	00 00 00 
  100f24:	66 2e 0f 1f 84 00 00 	nopw   %cs:0x0(%rax,%rax,1)
  100f2b:	00 00 00 
  100f2e:	66 2e 0f 1f 84 00 00 	nopw   %cs:0x0(%rax,%rax,1)
  100f35:	00 00 00 
  100f38:	66 2e 0f 1f 84 00 00 	nopw   %cs:0x0(%rax,%rax,1)
  100f3f:	00 00 00 
  100f42:	66 2e 0f 1f 84 00 00 	nopw   %cs:0x0(%rax,%rax,1)
  100f49:	00 00 00 
  100f4c:	66 2e 0f 1f 84 00 00 	nopw   %cs:0x0(%rax,%rax,1)
  100f53:	00 00 00 
  100f56:	66 2e 0f 1f 84 00 00 	nopw   %cs:0x0(%rax,%rax,1)
  100f5d:	00 00 00 
  100f60:	66 2e 0f 1f 84 00 00 	nopw   %cs:0x0(%rax,%rax,1)
  100f67:	00 00 00 
  100f6a:	66 2e 0f 1f 84 00 00 	nopw   %cs:0x0(%rax,%rax,1)
  100f71:	00 00 00 
  100f74:	66 2e 0f 1f 84 00 00 	nopw   %cs:0x0(%rax,%rax,1)
  100f7b:	00 00 00 
  100f7e:	66 2e 0f 1f 84 00 00 	nopw   %cs:0x0(%rax,%rax,1)
  100f85:	00 00 00 
  100f88:	66 2e 0f 1f 84 00 00 	nopw   %cs:0x0(%rax,%rax,1)
  100f8f:	00 00 00 
  100f92:	66 2e 0f 1f 84 00 00 	nopw   %cs:0x0(%rax,%rax,1)
  100f99:	00 00 00 
  100f9c:	66 2e 0f 1f 84 00 00 	nopw   %cs:0x0(%rax,%rax,1)
  100fa3:	00 00 00 
  100fa6:	66 2e 0f 1f 84 00 00 	nopw   %cs:0x0(%rax,%rax,1)
  100fad:	00 00 00 
  100fb0:	66 2e 0f 1f 84 00 00 	nopw   %cs:0x0(%rax,%rax,1)
  100fb7:	00 00 00 
  100fba:	66 2e 0f 1f 84 00 00 	nopw   %cs:0x0(%rax,%rax,1)
  100fc1:	00 00 00 
  100fc4:	66 2e 0f 1f 84 00 00 	nopw   %cs:0x0(%rax,%rax,1)
  100fcb:	00 00 00 
  100fce:	66 2e 0f 1f 84 00 00 	nopw   %cs:0x0(%rax,%rax,1)
  100fd5:	00 00 00 
  100fd8:	66 2e 0f 1f 84 00 00 	nopw   %cs:0x0(%rax,%rax,1)
  100fdf:	00 00 00 
  100fe2:	66 2e 0f 1f 84 00 00 	nopw   %cs:0x0(%rax,%rax,1)
  100fe9:	00 00 00 
  100fec:	66 2e 0f 1f 84 00 00 	nopw   %cs:0x0(%rax,%rax,1)
  100ff3:	00 00 00 
  100ff6:	66 2e 0f 1f 84 00 00 	nopw   %cs:0x0(%rax,%rax,1)
  100ffd:	00 00 00 

0000000000101000 <gdt_64>:
	...
  101008:	ff                   	(bad)  
  101009:	ff 00                	incl   (%rax)
  10100b:	00 00                	add    %al,(%rax)
  10100d:	9a                   	(bad)  
  10100e:	af                   	scas   %es:(%rdi),%eax
  10100f:	00 ff                	add    %bh,%bh
  101011:	ff 00                	incl   (%rax)
  101013:	00 00                	add    %al,(%rax)
  101015:	92                   	xchg   %eax,%edx
  101016:	cf                   	iret   
	...

0000000000101018 <gdtdesc_64>:
  101018:	17                   	(bad)  
  101019:	00 00                	add    %al,(%rax)
  10101b:	10 10                	adc    %dl,(%rax)
	...

0000000000102000 <pml4phys>:
	...

0000000000103000 <pdpt1>:
	...

0000000000104000 <pdpt2>:
	...

0000000000105000 <pde1>:
	...

0000000000106000 <pde2>:
	...

0000000000107000 <multiboot_info>:
  107000:	00 00                	add    %al,(%rax)
	...

Desensamblado de la sección .text:

0000008004200000 <_start+0x8003fffff4>:
  8004200000:	02 b0 ad 1b 00 00    	add    0x1bad(%rax),%dh
  8004200006:	00 00                	add    %al,(%rax)
  8004200008:	fe 4f 52             	decb   0x52(%rdi)
  800420000b:	e4                   	.byte 0xe4

000000800420000c <entry>:
entry:

/* .globl _back_from_head64 */
/* _back_from_head64: */

    movabs   $gdtdesc_64,%rax
  800420000c:	48 b8 38 80 22 04 80 	movabs $0x8004228038,%rax
  8004200013:	00 00 00 
    lgdt     (%rax)
  8004200016:	0f 01 10             	lgdt   (%rax)
    movw    $DATA_SEL,%ax
  8004200019:	66 b8 10 00          	mov    $0x10,%ax
    movw    %ax,%ds
  800420001d:	8e d8                	mov    %eax,%ds
    movw    %ax,%ss
  800420001f:	8e d0                	mov    %eax,%ss
    movw    %ax,%fs
  8004200021:	8e e0                	mov    %eax,%fs
    movw    %ax,%gs
  8004200023:	8e e8                	mov    %eax,%gs
    movw    %ax,%es
  8004200025:	8e c0                	mov    %eax,%es
    pushq   $CODE_SEL
  8004200027:	6a 08                	pushq  $0x8
    movabs  $relocated,%rax
  8004200029:	48 b8 36 00 20 04 80 	movabs $0x8004200036,%rax
  8004200030:	00 00 00 
    pushq   %rax
  8004200033:	50                   	push   %rax
    lretq
  8004200034:	48 cb                	lretq  

0000008004200036 <relocated>:
relocated:

	# Clear the frame pointer register (RBP)
	# so that once we get into debugging C code,
	# stack backtraces will be terminated properly.
	movq	$0x0,%rbp			# nuke frame pointer
  8004200036:	48 c7 c5 00 00 00 00 	mov    $0x0,%rbp

	# Set the stack pointer
	movabs	$(bootstacktop),%rax
  800420003d:	48 b8 00 80 22 04 80 	movabs $0x8004228000,%rax
  8004200044:	00 00 00 
	movq  %rax,%rsp
  8004200047:	48 89 c4             	mov    %rax,%rsp

	# now to C code
    movabs $i386_init, %rax
  800420004a:	48 b8 82 01 20 04 80 	movabs $0x8004200182,%rax
  8004200051:	00 00 00 
	call *%rax
  8004200054:	ff d0                	callq  *%rax

0000008004200056 <spin>:

	# Should never get here, but in case we do, just spin.
spin:	jmp	spin
  8004200056:	eb fe                	jmp    8004200056 <spin>

0000008004200058 <cpuid>:

#define read_rip(var) __asm __volatile("leaq (%%rip), %0" : "=r" (var)::"cc","memory")

static __inline void
cpuid(uint32_t info, uint32_t *eaxp, uint32_t *ebxp, uint32_t *ecxp, uint32_t *edxp)
{
  8004200058:	55                   	push   %rbp
  8004200059:	48 89 e5             	mov    %rsp,%rbp
  800420005c:	53                   	push   %rbx
  800420005d:	48 83 ec 38          	sub    $0x38,%rsp
  8004200061:	89 7d e4             	mov    %edi,-0x1c(%rbp)
  8004200064:	48 89 75 d8          	mov    %rsi,-0x28(%rbp)
  8004200068:	48 89 55 d0          	mov    %rdx,-0x30(%rbp)
  800420006c:	48 89 4d c8          	mov    %rcx,-0x38(%rbp)
  8004200070:	4c 89 45 c0          	mov    %r8,-0x40(%rbp)
	uint32_t eax, ebx, ecx, edx;
	asm volatile("cpuid" 
  8004200074:	8b 45 e4             	mov    -0x1c(%rbp),%eax
  8004200077:	0f a2                	cpuid  
  8004200079:	89 de                	mov    %ebx,%esi
  800420007b:	89 45 f4             	mov    %eax,-0xc(%rbp)
  800420007e:	89 75 f0             	mov    %esi,-0x10(%rbp)
  8004200081:	89 4d ec             	mov    %ecx,-0x14(%rbp)
  8004200084:	89 55 e8             	mov    %edx,-0x18(%rbp)
			 : "=a" (eax), "=b" (ebx), "=c" (ecx), "=d" (edx)
			 : "a" (info));
	if (eaxp)
  8004200087:	48 83 7d d8 00       	cmpq   $0x0,-0x28(%rbp)
  800420008c:	74 09                	je     8004200097 <cpuid+0x3f>
		*eaxp = eax;
  800420008e:	48 8b 45 d8          	mov    -0x28(%rbp),%rax
  8004200092:	8b 55 f4             	mov    -0xc(%rbp),%edx
  8004200095:	89 10                	mov    %edx,(%rax)
	if (ebxp)
  8004200097:	48 83 7d d0 00       	cmpq   $0x0,-0x30(%rbp)
  800420009c:	74 09                	je     80042000a7 <cpuid+0x4f>
		*ebxp = ebx;
  800420009e:	48 8b 45 d0          	mov    -0x30(%rbp),%rax
  80042000a2:	8b 55 f0             	mov    -0x10(%rbp),%edx
  80042000a5:	89 10                	mov    %edx,(%rax)
	if (ecxp)
  80042000a7:	48 83 7d c8 00       	cmpq   $0x0,-0x38(%rbp)
  80042000ac:	74 09                	je     80042000b7 <cpuid+0x5f>
		*ecxp = ecx;
  80042000ae:	48 8b 45 c8          	mov    -0x38(%rbp),%rax
  80042000b2:	8b 55 ec             	mov    -0x14(%rbp),%edx
  80042000b5:	89 10                	mov    %edx,(%rax)
	if (edxp)
  80042000b7:	48 83 7d c0 00       	cmpq   $0x0,-0x40(%rbp)
  80042000bc:	74 09                	je     80042000c7 <cpuid+0x6f>
		*edxp = edx;
  80042000be:	48 8b 45 c0          	mov    -0x40(%rbp),%rax
  80042000c2:	8b 55 e8             	mov    -0x18(%rbp),%edx
  80042000c5:	89 10                	mov    %edx,(%rax)
}
  80042000c7:	48 83 c4 38          	add    $0x38,%rsp
  80042000cb:	5b                   	pop    %rbx
  80042000cc:	5d                   	pop    %rbp
  80042000cd:	c3                   	retq   

00000080042000ce <xchg>:

static inline uint32_t
xchg(volatile uint32_t *addr,uint32_t newval){
  80042000ce:	55                   	push   %rbp
  80042000cf:	48 89 e5             	mov    %rsp,%rbp
  80042000d2:	48 83 ec 20          	sub    $0x20,%rsp
  80042000d6:	48 89 7d e8          	mov    %rdi,-0x18(%rbp)
  80042000da:	89 75 e4             	mov    %esi,-0x1c(%rbp)
	uint32_t result;
	__asm __volatile("lock; xchgl %0, %1":
  80042000dd:	48 8b 55 e8          	mov    -0x18(%rbp),%rdx
  80042000e1:	8b 45 e4             	mov    -0x1c(%rbp),%eax
  80042000e4:	48 8b 4d e8          	mov    -0x18(%rbp),%rcx
  80042000e8:	f0 87 02             	lock xchg %eax,(%rdx)
  80042000eb:	89 45 fc             	mov    %eax,-0x4(%rbp)
			 "+m" (*addr), "=a" (result):
			 "1"(newval):
			 "cc");
	return result;
  80042000ee:	8b 45 fc             	mov    -0x4(%rbp),%eax
}
  80042000f1:	c9                   	leaveq 
  80042000f2:	c3                   	retq   

00000080042000f3 <vmcall>:
#ifdef VMM_GUEST

static void boot_virtual_aps(void);

int64_t vmcall(int num, int check, uint64_t a1, uint64_t a2, uint64_t a3, uint64_t a4, uint64_t a5)
{
  80042000f3:	55                   	push   %rbp
  80042000f4:	48 89 e5             	mov    %rsp,%rbp
  80042000f7:	53                   	push   %rbx
  80042000f8:	48 83 ec 48          	sub    $0x48,%rsp
  80042000fc:	89 7d dc             	mov    %edi,-0x24(%rbp)
  80042000ff:	89 75 d8             	mov    %esi,-0x28(%rbp)
  8004200102:	48 89 55 d0          	mov    %rdx,-0x30(%rbp)
  8004200106:	48 89 4d c8          	mov    %rcx,-0x38(%rbp)
  800420010a:	4c 89 45 c0          	mov    %r8,-0x40(%rbp)
  800420010e:	4c 89 4d b8          	mov    %r9,-0x48(%rbp)
    int64_t ret;
    asm volatile("vmcall\n" : "=a" (ret) : "a" (num), "d" (a1), "c" (a2), "b" (a3), "D" (a4), "S" (a5) : "cc", "memory");
  8004200112:	8b 45 dc             	mov    -0x24(%rbp),%eax
  8004200115:	48 8b 55 d0          	mov    -0x30(%rbp),%rdx
  8004200119:	48 8b 4d c8          	mov    -0x38(%rbp),%rcx
  800420011d:	4c 8b 45 c0          	mov    -0x40(%rbp),%r8
  8004200121:	48 8b 7d b8          	mov    -0x48(%rbp),%rdi
  8004200125:	48 8b 75 10          	mov    0x10(%rbp),%rsi
  8004200129:	4c 89 c3             	mov    %r8,%rbx
  800420012c:	0f 01 c1             	vmcall 
  800420012f:	48 89 45 e8          	mov    %rax,-0x18(%rbp)
    if(check && ret > 0) panic("vmcall %d returned %d (> 0)", num, ret);
  8004200133:	83 7d d8 00          	cmpl   $0x0,-0x28(%rbp)
  8004200137:	74 3e                	je     8004200177 <vmcall+0x84>
  8004200139:	48 83 7d e8 00       	cmpq   $0x0,-0x18(%rbp)
  800420013e:	7e 37                	jle    8004200177 <vmcall+0x84>
  8004200140:	48 8b 55 e8          	mov    -0x18(%rbp),%rdx
  8004200144:	8b 45 dc             	mov    -0x24(%rbp),%eax
  8004200147:	49 89 d0             	mov    %rdx,%r8
  800420014a:	89 c1                	mov    %eax,%ecx
  800420014c:	48 ba 40 46 21 04 80 	movabs $0x8004214640,%rdx
  8004200153:	00 00 00 
  8004200156:	be 28 00 00 00       	mov    $0x28,%esi
  800420015b:	48 bf 5c 46 21 04 80 	movabs $0x800421465c,%rdi
  8004200162:	00 00 00 
  8004200165:	b8 00 00 00 00       	mov    $0x0,%eax
  800420016a:	49 b9 a6 05 20 04 80 	movabs $0x80042005a6,%r9
  8004200171:	00 00 00 
  8004200174:	41 ff d1             	callq  *%r9
    return ret;
  8004200177:	48 8b 45 e8          	mov    -0x18(%rbp),%rax
}
  800420017b:	48 83 c4 48          	add    $0x48,%rsp
  800420017f:	5b                   	pop    %rbx
  8004200180:	5d                   	pop    %rbp
  8004200181:	c3                   	retq   

0000008004200182 <i386_init>:
#endif


void
i386_init(void)
{
  8004200182:	55                   	push   %rbp
  8004200183:	48 89 e5             	mov    %rsp,%rbp
  8004200186:	48 83 ec 10          	sub    $0x10,%rsp
	extern char edata[], end[];

	// Before doing anything else, complete the ELF loading process.
	// Clear the uninitialized global data (BSS) section of our program.
	// This ensures that all static/global variables start out zero.
	memset(edata, 0, end - edata);
  800420018a:	48 ba 10 f0 5b 04 80 	movabs $0x80045bf010,%rdx
  8004200191:	00 00 00 
  8004200194:	48 b8 18 a2 57 04 80 	movabs $0x800457a218,%rax
  800420019b:	00 00 00 
  800420019e:	48 29 c2             	sub    %rax,%rdx
  80042001a1:	48 89 d0             	mov    %rdx,%rax
  80042001a4:	48 89 c2             	mov    %rax,%rdx
  80042001a7:	be 00 00 00 00       	mov    $0x0,%esi
  80042001ac:	48 bf 18 a2 57 04 80 	movabs $0x800457a218,%rdi
  80042001b3:	00 00 00 
  80042001b6:	48 b8 e8 c4 20 04 80 	movabs $0x800420c4e8,%rax
  80042001bd:	00 00 00 
  80042001c0:	ff d0                	callq  *%rax

	// Initialize the console.
	// Can't call cprintf until after we do this!
	cons_init();
  80042001c2:	48 b8 a7 12 20 04 80 	movabs $0x80042012a7,%rax
  80042001c9:	00 00 00 
  80042001cc:	ff d0                	callq  *%rax

	cprintf("6828 decimal is %o octal!\n", 6828);
  80042001ce:	be ac 1a 00 00       	mov    $0x1aac,%esi
  80042001d3:	48 bf 68 46 21 04 80 	movabs $0x8004214668,%rdi
  80042001da:	00 00 00 
  80042001dd:	b8 00 00 00 00       	mov    $0x0,%eax
  80042001e2:	48 ba 4a 95 20 04 80 	movabs $0x800420954a,%rdx
  80042001e9:	00 00 00 
  80042001ec:	ff d2                	callq  *%rdx

#ifdef VMM_GUEST
	/* Guest VMX extension exposure check */
	{
		uint32_t ecx = 0;
  80042001ee:	c7 45 fc 00 00 00 00 	movl   $0x0,-0x4(%rbp)
		cpuid(0x1, NULL, NULL, &ecx, NULL);
  80042001f5:	48 8d 45 fc          	lea    -0x4(%rbp),%rax
  80042001f9:	41 b8 00 00 00 00    	mov    $0x0,%r8d
  80042001ff:	48 89 c1             	mov    %rax,%rcx
  8004200202:	ba 00 00 00 00       	mov    $0x0,%edx
  8004200207:	be 00 00 00 00       	mov    $0x0,%esi
  800420020c:	bf 01 00 00 00       	mov    $0x1,%edi
  8004200211:	48 b8 58 00 20 04 80 	movabs $0x8004200058,%rax
  8004200218:	00 00 00 
  800420021b:	ff d0                	callq  *%rax
		if (ecx & 0x20)
  800420021d:	8b 45 fc             	mov    -0x4(%rbp),%eax
  8004200220:	83 e0 20             	and    $0x20,%eax
  8004200223:	85 c0                	test   %eax,%eax
  8004200225:	74 2a                	je     8004200251 <i386_init+0xcf>
			panic("[ERR] VMX extension exposed to guest.\n");
  8004200227:	48 ba 88 46 21 04 80 	movabs $0x8004214688,%rdx
  800420022e:	00 00 00 
  8004200231:	be 46 00 00 00       	mov    $0x46,%esi
  8004200236:	48 bf 5c 46 21 04 80 	movabs $0x800421465c,%rdi
  800420023d:	00 00 00 
  8004200240:	b8 00 00 00 00       	mov    $0x0,%eax
  8004200245:	48 b9 a6 05 20 04 80 	movabs $0x80042005a6,%rcx
  800420024c:	00 00 00 
  800420024f:	ff d1                	callq  *%rcx
		else
			cprintf("VMX extension hidden from guest.\n");
  8004200251:	48 bf b0 46 21 04 80 	movabs $0x80042146b0,%rdi
  8004200258:	00 00 00 
  800420025b:	b8 00 00 00 00       	mov    $0x0,%eax
  8004200260:	48 ba 4a 95 20 04 80 	movabs $0x800420954a,%rdx
  8004200267:	00 00 00 
  800420026a:	ff d2                	callq  *%rdx
	extern char end[];
	end_debug = read_section_headers((0x10000+KERNBASE), (uintptr_t)end);
#endif

	// Lab 2 memory management initialization functions
	x64_vm_init();
  800420026c:	b8 00 00 00 00       	mov    $0x0,%eax
  8004200271:	48 ba 2d 27 20 04 80 	movabs $0x800420272d,%rdx
  8004200278:	00 00 00 
  800420027b:	ff d2                	callq  *%rdx

	// Lab 3 user environment initialization functions
	env_init();
  800420027d:	48 b8 5e 80 20 04 80 	movabs $0x800420805e,%rax
  8004200284:	00 00 00 
  8004200287:	ff d0                	callq  *%rax
	trap_init();
  8004200289:	48 b8 c2 96 20 04 80 	movabs $0x80042096c2,%rax
  8004200290:	00 00 00 
  8004200293:	ff d0                	callq  *%rax
	mp_init();
	lapic_init();
#endif

	// Lab 4 multitasking initialization functions
	pic_init();
  8004200295:	48 b8 4a 92 20 04 80 	movabs $0x800420924a,%rax
  800420029c:	00 00 00 
  800420029f:	ff d0                	callq  *%rax




	// Start fs.
	ENV_CREATE(fs_fs, ENV_TYPE_FS);
  80042002a1:	be 01 00 00 00       	mov    $0x1,%esi
  80042002a6:	48 bf c0 8e 2e 04 80 	movabs $0x80042e8ec0,%rdi
  80042002ad:	00 00 00 
  80042002b0:	48 b8 ff 88 20 04 80 	movabs $0x80042088ff,%rax
  80042002b7:	00 00 00 
  80042002ba:	ff d0                	callq  *%rax
	// Don't touch -- used by grading script!
	ENV_CREATE(TEST, ENV_TYPE_USER);
#else
	// Touch all you want.

	ENV_CREATE(user_icode, ENV_TYPE_USER);
  80042002bc:	be 00 00 00 00       	mov    $0x0,%esi
  80042002c1:	48 bf d0 70 2c 04 80 	movabs $0x80042c70d0,%rdi
  80042002c8:	00 00 00 
  80042002cb:	48 b8 ff 88 20 04 80 	movabs $0x80042088ff,%rax
  80042002d2:	00 00 00 
  80042002d5:	ff d0                	callq  *%rax
#endif // TEST*

	// Should not be necessary - drains keyboard because interrupt has given up.
	kbd_intr();
  80042002d7:	48 b8 d9 10 20 04 80 	movabs $0x80042010d9,%rax
  80042002de:	00 00 00 
  80042002e1:	ff d0                	callq  *%rax

	// Schedule and run the first user environment!
	sched_yield();
  80042002e3:	48 b8 c5 a3 20 04 80 	movabs $0x800420a3c5,%rax
  80042002ea:	00 00 00 
  80042002ed:	ff d0                	callq  *%rax

00000080042002ef <boot_aps>:
void *mpentry_kstack;

// Start the non-boot (AP) processors.
static void
boot_aps(void)
{
  80042002ef:	55                   	push   %rbp
  80042002f0:	48 89 e5             	mov    %rsp,%rbp
  80042002f3:	48 83 ec 30          	sub    $0x30,%rsp
	extern unsigned char mpentry_start[], mpentry_end[];
	void *code;
	struct CpuInfo *c;

	// Write entry code to unused memory at MPENTRY_PADDR
	code = KADDR(MPENTRY_PADDR);
  80042002f7:	48 c7 45 f0 00 70 00 	movq   $0x7000,-0x10(%rbp)
  80042002fe:	00 
  80042002ff:	48 8b 45 f0          	mov    -0x10(%rbp),%rax
  8004200303:	48 c1 e8 0c          	shr    $0xc,%rax
  8004200307:	89 45 ec             	mov    %eax,-0x14(%rbp)
  800420030a:	8b 55 ec             	mov    -0x14(%rbp),%edx
  800420030d:	48 b8 d0 c7 57 04 80 	movabs $0x800457c7d0,%rax
  8004200314:	00 00 00 
  8004200317:	48 8b 00             	mov    (%rax),%rax
  800420031a:	48 39 c2             	cmp    %rax,%rdx
  800420031d:	72 32                	jb     8004200351 <boot_aps+0x62>
  800420031f:	48 8b 45 f0          	mov    -0x10(%rbp),%rax
  8004200323:	48 89 c1             	mov    %rax,%rcx
  8004200326:	48 ba d8 46 21 04 80 	movabs $0x80042146d8,%rdx
  800420032d:	00 00 00 
  8004200330:	be 96 00 00 00       	mov    $0x96,%esi
  8004200335:	48 bf 5c 46 21 04 80 	movabs $0x800421465c,%rdi
  800420033c:	00 00 00 
  800420033f:	b8 00 00 00 00       	mov    $0x0,%eax
  8004200344:	49 b8 a6 05 20 04 80 	movabs $0x80042005a6,%r8
  800420034b:	00 00 00 
  800420034e:	41 ff d0             	callq  *%r8
  8004200351:	48 ba 00 00 00 04 80 	movabs $0x8004000000,%rdx
  8004200358:	00 00 00 
  800420035b:	48 8b 45 f0          	mov    -0x10(%rbp),%rax
  800420035f:	48 01 d0             	add    %rdx,%rax
  8004200362:	48 89 45 e0          	mov    %rax,-0x20(%rbp)
	memmove(code, mpentry_start, mpentry_end - mpentry_start);
  8004200366:	48 ba ce 28 21 04 80 	movabs $0x80042128ce,%rdx
  800420036d:	00 00 00 
  8004200370:	48 b8 e8 27 21 04 80 	movabs $0x80042127e8,%rax
  8004200377:	00 00 00 
  800420037a:	48 29 c2             	sub    %rax,%rdx
  800420037d:	48 89 d0             	mov    %rdx,%rax
  8004200380:	48 89 c2             	mov    %rax,%rdx
  8004200383:	48 8b 45 e0          	mov    -0x20(%rbp),%rax
  8004200387:	48 be e8 27 21 04 80 	movabs $0x80042127e8,%rsi
  800420038e:	00 00 00 
  8004200391:	48 89 c7             	mov    %rax,%rdi
  8004200394:	48 b8 73 c5 20 04 80 	movabs $0x800420c573,%rax
  800420039b:	00 00 00 
  800420039e:	ff d0                	callq  *%rax
	// Boot each AP one at a time
	for (c = cpus; c < cpus + ncpu; c++) {
  80042003a0:	48 b8 40 e0 57 04 80 	movabs $0x800457e040,%rax
  80042003a7:	00 00 00 
  80042003aa:	48 89 45 f8          	mov    %rax,-0x8(%rbp)
  80042003ae:	e9 0e 01 00 00       	jmpq   80042004c1 <boot_aps+0x1d2>
		if (c == cpus + cpunum())  // We've started already.
  80042003b3:	48 b8 f9 33 21 04 80 	movabs $0x80042133f9,%rax
  80042003ba:	00 00 00 
  80042003bd:	ff d0                	callq  *%rax
  80042003bf:	48 98                	cltq   
  80042003c1:	48 c1 e0 03          	shl    $0x3,%rax
  80042003c5:	48 89 c2             	mov    %rax,%rdx
  80042003c8:	48 c1 e2 04          	shl    $0x4,%rdx
  80042003cc:	48 01 c2             	add    %rax,%rdx
  80042003cf:	48 b8 40 e0 57 04 80 	movabs $0x800457e040,%rax
  80042003d6:	00 00 00 
  80042003d9:	48 01 d0             	add    %rdx,%rax
  80042003dc:	48 3b 45 f8          	cmp    -0x8(%rbp),%rax
  80042003e0:	75 05                	jne    80042003e7 <boot_aps+0xf8>
			continue;
  80042003e2:	e9 d2 00 00 00       	jmpq   80042004b9 <boot_aps+0x1ca>

		// Tell mpentry.S what stack to use
		mpentry_kstack = percpu_kstacks[c - cpus] + KSTKSIZE;
  80042003e7:	48 8b 55 f8          	mov    -0x8(%rbp),%rdx
  80042003eb:	48 b8 40 e0 57 04 80 	movabs $0x800457e040,%rax
  80042003f2:	00 00 00 
  80042003f5:	48 29 c2             	sub    %rax,%rdx
  80042003f8:	48 89 d0             	mov    %rdx,%rax
  80042003fb:	48 c1 f8 03          	sar    $0x3,%rax
  80042003ff:	48 89 c2             	mov    %rax,%rdx
  8004200402:	48 b8 f1 f0 f0 f0 f0 	movabs $0xf0f0f0f0f0f0f0f1,%rax
  8004200409:	f0 f0 f0 
  800420040c:	48 0f af c2          	imul   %rdx,%rax
  8004200410:	48 83 c0 01          	add    $0x1,%rax
  8004200414:	48 c1 e0 10          	shl    $0x10,%rax
  8004200418:	48 89 c2             	mov    %rax,%rdx
  800420041b:	48 b8 00 f0 57 04 80 	movabs $0x800457f000,%rax
  8004200422:	00 00 00 
  8004200425:	48 01 c2             	add    %rax,%rdx
  8004200428:	48 b8 b8 c7 57 04 80 	movabs $0x800457c7b8,%rax
  800420042f:	00 00 00 
  8004200432:	48 89 10             	mov    %rdx,(%rax)
		// Start the CPU at mpentry_start
		lapic_startap(c->cpu_id, PADDR(code));
  8004200435:	48 8b 45 e0          	mov    -0x20(%rbp),%rax
  8004200439:	48 89 45 d8          	mov    %rax,-0x28(%rbp)
  800420043d:	48 b8 ff ff ff 03 80 	movabs $0x8003ffffff,%rax
  8004200444:	00 00 00 
  8004200447:	48 39 45 d8          	cmp    %rax,-0x28(%rbp)
  800420044b:	77 32                	ja     800420047f <boot_aps+0x190>
  800420044d:	48 8b 45 d8          	mov    -0x28(%rbp),%rax
  8004200451:	48 89 c1             	mov    %rax,%rcx
  8004200454:	48 ba 00 47 21 04 80 	movabs $0x8004214700,%rdx
  800420045b:	00 00 00 
  800420045e:	be a0 00 00 00       	mov    $0xa0,%esi
  8004200463:	48 bf 5c 46 21 04 80 	movabs $0x800421465c,%rdi
  800420046a:	00 00 00 
  800420046d:	b8 00 00 00 00       	mov    $0x0,%eax
  8004200472:	49 b8 a6 05 20 04 80 	movabs $0x80042005a6,%r8
  8004200479:	00 00 00 
  800420047c:	41 ff d0             	callq  *%r8
  800420047f:	48 ba 00 00 00 fc 7f 	movabs $0xffffff7ffc000000,%rdx
  8004200486:	ff ff ff 
  8004200489:	48 8b 45 d8          	mov    -0x28(%rbp),%rax
  800420048d:	48 01 d0             	add    %rdx,%rax
  8004200490:	89 c2                	mov    %eax,%edx
  8004200492:	48 8b 45 f8          	mov    -0x8(%rbp),%rax
  8004200496:	0f b6 00             	movzbl (%rax),%eax
  8004200499:	0f b6 c0             	movzbl %al,%eax
  800420049c:	89 d6                	mov    %edx,%esi
  800420049e:	89 c7                	mov    %eax,%edi
  80042004a0:	48 b8 69 34 21 04 80 	movabs $0x8004213469,%rax
  80042004a7:	00 00 00 
  80042004aa:	ff d0                	callq  *%rax
		// Wait for the CPU to finish some basic setup in mp_main()
		while(c->cpu_status != CPU_STARTED)
  80042004ac:	90                   	nop
  80042004ad:	48 8b 45 f8          	mov    -0x8(%rbp),%rax
  80042004b1:	8b 40 04             	mov    0x4(%rax),%eax
  80042004b4:	83 f8 01             	cmp    $0x1,%eax
  80042004b7:	75 f4                	jne    80042004ad <boot_aps+0x1be>
	for (c = cpus; c < cpus + ncpu; c++) {
  80042004b9:	48 81 45 f8 88 00 00 	addq   $0x88,-0x8(%rbp)
  80042004c0:	00 
  80042004c1:	48 b8 68 e2 57 04 80 	movabs $0x800457e268,%rax
  80042004c8:	00 00 00 
  80042004cb:	8b 00                	mov    (%rax),%eax
  80042004cd:	48 98                	cltq   
  80042004cf:	48 c1 e0 03          	shl    $0x3,%rax
  80042004d3:	48 89 c2             	mov    %rax,%rdx
  80042004d6:	48 c1 e2 04          	shl    $0x4,%rdx
  80042004da:	48 01 c2             	add    %rax,%rdx
  80042004dd:	48 b8 40 e0 57 04 80 	movabs $0x800457e040,%rax
  80042004e4:	00 00 00 
  80042004e7:	48 01 d0             	add    %rdx,%rax
  80042004ea:	48 3b 45 f8          	cmp    -0x8(%rbp),%rax
  80042004ee:	0f 87 bf fe ff ff    	ja     80042003b3 <boot_aps+0xc4>
			;
	}
}
  80042004f4:	c9                   	leaveq 
  80042004f5:	c3                   	retq   

00000080042004f6 <mp_main>:

// Setup code for APs
void
mp_main(void)
{
  80042004f6:	55                   	push   %rbp
  80042004f7:	48 89 e5             	mov    %rsp,%rbp
  80042004fa:	48 83 ec 10          	sub    $0x10,%rsp
	// We are in high EIP now, safe to switch to kern_pgdir
	lcr3(boot_cr3);
  80042004fe:	48 b8 c0 c7 57 04 80 	movabs $0x800457c7c0,%rax
  8004200505:	00 00 00 
  8004200508:	48 8b 00             	mov    (%rax),%rax
  800420050b:	48 89 45 f8          	mov    %rax,-0x8(%rbp)
	__asm __volatile("movq %0,%%cr3" : : "r" (val));
  800420050f:	48 8b 45 f8          	mov    -0x8(%rbp),%rax
  8004200513:	0f 22 d8             	mov    %rax,%cr3
	cprintf("SMP: CPU %d starting\n", cpunum());
  8004200516:	48 b8 f9 33 21 04 80 	movabs $0x80042133f9,%rax
  800420051d:	00 00 00 
  8004200520:	ff d0                	callq  *%rax
  8004200522:	89 c6                	mov    %eax,%esi
  8004200524:	48 bf 24 47 21 04 80 	movabs $0x8004214724,%rdi
  800420052b:	00 00 00 
  800420052e:	b8 00 00 00 00       	mov    $0x0,%eax
  8004200533:	48 ba 4a 95 20 04 80 	movabs $0x800420954a,%rdx
  800420053a:	00 00 00 
  800420053d:	ff d2                	callq  *%rdx

	lapic_init();
  800420053f:	48 b8 ff 31 21 04 80 	movabs $0x80042131ff,%rax
  8004200546:	00 00 00 
  8004200549:	ff d0                	callq  *%rax
	env_init_percpu();
  800420054b:	48 b8 2b 81 20 04 80 	movabs $0x800420812b,%rax
  8004200552:	00 00 00 
  8004200555:	ff d0                	callq  *%rax
	trap_init_percpu();
  8004200557:	48 b8 fb 96 20 04 80 	movabs $0x80042096fb,%rax
  800420055e:	00 00 00 
  8004200561:	ff d0                	callq  *%rax
	xchg(&thiscpu->cpu_status, CPU_STARTED); // tell boot_aps() we're up
  8004200563:	48 b8 f9 33 21 04 80 	movabs $0x80042133f9,%rax
  800420056a:	00 00 00 
  800420056d:	ff d0                	callq  *%rax
  800420056f:	48 98                	cltq   
  8004200571:	48 c1 e0 03          	shl    $0x3,%rax
  8004200575:	48 89 c2             	mov    %rax,%rdx
  8004200578:	48 c1 e2 04          	shl    $0x4,%rdx
  800420057c:	48 01 d0             	add    %rdx,%rax
  800420057f:	48 ba 40 e0 57 04 80 	movabs $0x800457e040,%rdx
  8004200586:	00 00 00 
  8004200589:	48 01 d0             	add    %rdx,%rax
  800420058c:	48 83 c0 04          	add    $0x4,%rax
  8004200590:	be 01 00 00 00       	mov    $0x1,%esi
  8004200595:	48 89 c7             	mov    %rax,%rdi
  8004200598:	48 b8 ce 00 20 04 80 	movabs $0x80042000ce,%rax
  800420059f:	00 00 00 
  80042005a2:	ff d0                	callq  *%rax
	// only one CPU can enter the scheduler at a time!
	//
	// Your code here:

	// Remove this after you finish Exercise 4
	for (;;);
  80042005a4:	eb fe                	jmp    80042005a4 <mp_main+0xae>

00000080042005a6 <_panic>:
 * Panic is called on unresolvable fatal errors.
 * It prints "panic: mesg", and then enters the kernel monitor.
 */
void
_panic(const char *file, int line, const char *fmt,...)
{
  80042005a6:	55                   	push   %rbp
  80042005a7:	48 89 e5             	mov    %rsp,%rbp
  80042005aa:	48 81 ec f0 00 00 00 	sub    $0xf0,%rsp
  80042005b1:	48 89 bd 28 ff ff ff 	mov    %rdi,-0xd8(%rbp)
  80042005b8:	89 b5 24 ff ff ff    	mov    %esi,-0xdc(%rbp)
  80042005be:	48 89 8d 68 ff ff ff 	mov    %rcx,-0x98(%rbp)
  80042005c5:	4c 89 85 70 ff ff ff 	mov    %r8,-0x90(%rbp)
  80042005cc:	4c 89 8d 78 ff ff ff 	mov    %r9,-0x88(%rbp)
  80042005d3:	84 c0                	test   %al,%al
  80042005d5:	74 20                	je     80042005f7 <_panic+0x51>
  80042005d7:	0f 29 45 80          	movaps %xmm0,-0x80(%rbp)
  80042005db:	0f 29 4d 90          	movaps %xmm1,-0x70(%rbp)
  80042005df:	0f 29 55 a0          	movaps %xmm2,-0x60(%rbp)
  80042005e3:	0f 29 5d b0          	movaps %xmm3,-0x50(%rbp)
  80042005e7:	0f 29 65 c0          	movaps %xmm4,-0x40(%rbp)
  80042005eb:	0f 29 6d d0          	movaps %xmm5,-0x30(%rbp)
  80042005ef:	0f 29 75 e0          	movaps %xmm6,-0x20(%rbp)
  80042005f3:	0f 29 7d f0          	movaps %xmm7,-0x10(%rbp)
  80042005f7:	48 89 95 18 ff ff ff 	mov    %rdx,-0xe8(%rbp)
	va_list ap;

	if (panicstr)
  80042005fe:	48 b8 b0 c7 57 04 80 	movabs $0x800457c7b0,%rax
  8004200605:	00 00 00 
  8004200608:	48 8b 00             	mov    (%rax),%rax
  800420060b:	48 85 c0             	test   %rax,%rax
  800420060e:	74 05                	je     8004200615 <_panic+0x6f>
		goto dead;
  8004200610:	e9 ba 00 00 00       	jmpq   80042006cf <_panic+0x129>
	panicstr = fmt;
  8004200615:	48 b8 b0 c7 57 04 80 	movabs $0x800457c7b0,%rax
  800420061c:	00 00 00 
  800420061f:	48 8b 95 18 ff ff ff 	mov    -0xe8(%rbp),%rdx
  8004200626:	48 89 10             	mov    %rdx,(%rax)

	// Be extra sure that the machine is in as reasonable state
	__asm __volatile("cli; cld");
  8004200629:	fa                   	cli    
  800420062a:	fc                   	cld    

	va_start(ap, fmt);
  800420062b:	c7 85 38 ff ff ff 18 	movl   $0x18,-0xc8(%rbp)
  8004200632:	00 00 00 
  8004200635:	c7 85 3c ff ff ff 30 	movl   $0x30,-0xc4(%rbp)
  800420063c:	00 00 00 
  800420063f:	48 8d 45 10          	lea    0x10(%rbp),%rax
  8004200643:	48 89 85 40 ff ff ff 	mov    %rax,-0xc0(%rbp)
  800420064a:	48 8d 85 50 ff ff ff 	lea    -0xb0(%rbp),%rax
  8004200651:	48 89 85 48 ff ff ff 	mov    %rax,-0xb8(%rbp)
	cprintf("kernel panic on CPU %d at %s:%d: ", cpunum(), file, line);
  8004200658:	48 b8 f9 33 21 04 80 	movabs $0x80042133f9,%rax
  800420065f:	00 00 00 
  8004200662:	ff d0                	callq  *%rax
  8004200664:	89 c6                	mov    %eax,%esi
  8004200666:	8b 95 24 ff ff ff    	mov    -0xdc(%rbp),%edx
  800420066c:	48 8b 85 28 ff ff ff 	mov    -0xd8(%rbp),%rax
  8004200673:	89 d1                	mov    %edx,%ecx
  8004200675:	48 89 c2             	mov    %rax,%rdx
  8004200678:	48 bf 40 47 21 04 80 	movabs $0x8004214740,%rdi
  800420067f:	00 00 00 
  8004200682:	b8 00 00 00 00       	mov    $0x0,%eax
  8004200687:	49 b8 4a 95 20 04 80 	movabs $0x800420954a,%r8
  800420068e:	00 00 00 
  8004200691:	41 ff d0             	callq  *%r8
	vcprintf(fmt, ap);
  8004200694:	48 8d 95 38 ff ff ff 	lea    -0xc8(%rbp),%rdx
  800420069b:	48 8b 85 18 ff ff ff 	mov    -0xe8(%rbp),%rax
  80042006a2:	48 89 d6             	mov    %rdx,%rsi
  80042006a5:	48 89 c7             	mov    %rax,%rdi
  80042006a8:	48 b8 eb 94 20 04 80 	movabs $0x80042094eb,%rax
  80042006af:	00 00 00 
  80042006b2:	ff d0                	callq  *%rax
	cprintf("\n");
  80042006b4:	48 bf 62 47 21 04 80 	movabs $0x8004214762,%rdi
  80042006bb:	00 00 00 
  80042006be:	b8 00 00 00 00       	mov    $0x0,%eax
  80042006c3:	48 ba 4a 95 20 04 80 	movabs $0x800420954a,%rdx
  80042006ca:	00 00 00 
  80042006cd:	ff d2                	callq  *%rdx
	va_end(ap);

dead:
	/* break into the kernel monitor */
	while (1)
		monitor(NULL);
  80042006cf:	bf 00 00 00 00       	mov    $0x0,%edi
  80042006d4:	48 b8 60 1b 20 04 80 	movabs $0x8004201b60,%rax
  80042006db:	00 00 00 
  80042006de:	ff d0                	callq  *%rax
  80042006e0:	eb ed                	jmp    80042006cf <_panic+0x129>

00000080042006e2 <_warn>:
}

/* like panic, but don't */
void
_warn(const char *file, int line, const char *fmt,...)
{
  80042006e2:	55                   	push   %rbp
  80042006e3:	48 89 e5             	mov    %rsp,%rbp
  80042006e6:	48 81 ec f0 00 00 00 	sub    $0xf0,%rsp
  80042006ed:	48 89 bd 28 ff ff ff 	mov    %rdi,-0xd8(%rbp)
  80042006f4:	89 b5 24 ff ff ff    	mov    %esi,-0xdc(%rbp)
  80042006fa:	48 89 8d 68 ff ff ff 	mov    %rcx,-0x98(%rbp)
  8004200701:	4c 89 85 70 ff ff ff 	mov    %r8,-0x90(%rbp)
  8004200708:	4c 89 8d 78 ff ff ff 	mov    %r9,-0x88(%rbp)
  800420070f:	84 c0                	test   %al,%al
  8004200711:	74 20                	je     8004200733 <_warn+0x51>
  8004200713:	0f 29 45 80          	movaps %xmm0,-0x80(%rbp)
  8004200717:	0f 29 4d 90          	movaps %xmm1,-0x70(%rbp)
  800420071b:	0f 29 55 a0          	movaps %xmm2,-0x60(%rbp)
  800420071f:	0f 29 5d b0          	movaps %xmm3,-0x50(%rbp)
  8004200723:	0f 29 65 c0          	movaps %xmm4,-0x40(%rbp)
  8004200727:	0f 29 6d d0          	movaps %xmm5,-0x30(%rbp)
  800420072b:	0f 29 75 e0          	movaps %xmm6,-0x20(%rbp)
  800420072f:	0f 29 7d f0          	movaps %xmm7,-0x10(%rbp)
  8004200733:	48 89 95 18 ff ff ff 	mov    %rdx,-0xe8(%rbp)
	va_list ap;

	va_start(ap, fmt);
  800420073a:	c7 85 38 ff ff ff 18 	movl   $0x18,-0xc8(%rbp)
  8004200741:	00 00 00 
  8004200744:	c7 85 3c ff ff ff 30 	movl   $0x30,-0xc4(%rbp)
  800420074b:	00 00 00 
  800420074e:	48 8d 45 10          	lea    0x10(%rbp),%rax
  8004200752:	48 89 85 40 ff ff ff 	mov    %rax,-0xc0(%rbp)
  8004200759:	48 8d 85 50 ff ff ff 	lea    -0xb0(%rbp),%rax
  8004200760:	48 89 85 48 ff ff ff 	mov    %rax,-0xb8(%rbp)
	cprintf("kernel warning at %s:%d: ", file, line);
  8004200767:	8b 95 24 ff ff ff    	mov    -0xdc(%rbp),%edx
  800420076d:	48 8b 85 28 ff ff ff 	mov    -0xd8(%rbp),%rax
  8004200774:	48 89 c6             	mov    %rax,%rsi
  8004200777:	48 bf 64 47 21 04 80 	movabs $0x8004214764,%rdi
  800420077e:	00 00 00 
  8004200781:	b8 00 00 00 00       	mov    $0x0,%eax
  8004200786:	48 b9 4a 95 20 04 80 	movabs $0x800420954a,%rcx
  800420078d:	00 00 00 
  8004200790:	ff d1                	callq  *%rcx
	vcprintf(fmt, ap);
  8004200792:	48 8d 95 38 ff ff ff 	lea    -0xc8(%rbp),%rdx
  8004200799:	48 8b 85 18 ff ff ff 	mov    -0xe8(%rbp),%rax
  80042007a0:	48 89 d6             	mov    %rdx,%rsi
  80042007a3:	48 89 c7             	mov    %rax,%rdi
  80042007a6:	48 b8 eb 94 20 04 80 	movabs $0x80042094eb,%rax
  80042007ad:	00 00 00 
  80042007b0:	ff d0                	callq  *%rax
	cprintf("\n");
  80042007b2:	48 bf 62 47 21 04 80 	movabs $0x8004214762,%rdi
  80042007b9:	00 00 00 
  80042007bc:	b8 00 00 00 00       	mov    $0x0,%eax
  80042007c1:	48 ba 4a 95 20 04 80 	movabs $0x800420954a,%rdx
  80042007c8:	00 00 00 
  80042007cb:	ff d2                	callq  *%rdx
	va_end(ap);
}
  80042007cd:	c9                   	leaveq 
  80042007ce:	c3                   	retq   

00000080042007cf <delay>:
static void cons_putc(int c);

// Stupid I/O delay routine necessitated by historical PC design flaws
static void
delay(void)
{
  80042007cf:	55                   	push   %rbp
  80042007d0:	48 89 e5             	mov    %rsp,%rbp
  80042007d3:	48 83 ec 20          	sub    $0x20,%rsp
  80042007d7:	c7 45 fc 84 00 00 00 	movl   $0x84,-0x4(%rbp)
	__asm __volatile("inb %w1,%0" : "=a" (data) : "d" (port));
  80042007de:	8b 45 fc             	mov    -0x4(%rbp),%eax
  80042007e1:	89 c2                	mov    %eax,%edx
  80042007e3:	ec                   	in     (%dx),%al
  80042007e4:	88 45 fb             	mov    %al,-0x5(%rbp)
  80042007e7:	c7 45 f4 84 00 00 00 	movl   $0x84,-0xc(%rbp)
  80042007ee:	8b 45 f4             	mov    -0xc(%rbp),%eax
  80042007f1:	89 c2                	mov    %eax,%edx
  80042007f3:	ec                   	in     (%dx),%al
  80042007f4:	88 45 f3             	mov    %al,-0xd(%rbp)
  80042007f7:	c7 45 ec 84 00 00 00 	movl   $0x84,-0x14(%rbp)
  80042007fe:	8b 45 ec             	mov    -0x14(%rbp),%eax
  8004200801:	89 c2                	mov    %eax,%edx
  8004200803:	ec                   	in     (%dx),%al
  8004200804:	88 45 eb             	mov    %al,-0x15(%rbp)
  8004200807:	c7 45 e4 84 00 00 00 	movl   $0x84,-0x1c(%rbp)
  800420080e:	8b 45 e4             	mov    -0x1c(%rbp),%eax
  8004200811:	89 c2                	mov    %eax,%edx
  8004200813:	ec                   	in     (%dx),%al
  8004200814:	88 45 e3             	mov    %al,-0x1d(%rbp)
	inb(0x84);
	inb(0x84);
	inb(0x84);
	inb(0x84);
}
  8004200817:	c9                   	leaveq 
  8004200818:	c3                   	retq   

0000008004200819 <serial_proc_data>:

static bool serial_exists;

static int
serial_proc_data(void)
{
  8004200819:	55                   	push   %rbp
  800420081a:	48 89 e5             	mov    %rsp,%rbp
  800420081d:	48 83 ec 10          	sub    $0x10,%rsp
  8004200821:	c7 45 fc fd 03 00 00 	movl   $0x3fd,-0x4(%rbp)
  8004200828:	8b 45 fc             	mov    -0x4(%rbp),%eax
  800420082b:	89 c2                	mov    %eax,%edx
  800420082d:	ec                   	in     (%dx),%al
  800420082e:	88 45 fb             	mov    %al,-0x5(%rbp)
	return data;
  8004200831:	0f b6 45 fb          	movzbl -0x5(%rbp),%eax
	if (!(inb(COM1+COM_LSR) & COM_LSR_DATA))
  8004200835:	0f b6 c0             	movzbl %al,%eax
  8004200838:	83 e0 01             	and    $0x1,%eax
  800420083b:	85 c0                	test   %eax,%eax
  800420083d:	75 07                	jne    8004200846 <serial_proc_data+0x2d>
		return -1;
  800420083f:	b8 ff ff ff ff       	mov    $0xffffffff,%eax
  8004200844:	eb 17                	jmp    800420085d <serial_proc_data+0x44>
  8004200846:	c7 45 f4 f8 03 00 00 	movl   $0x3f8,-0xc(%rbp)
	__asm __volatile("inb %w1,%0" : "=a" (data) : "d" (port));
  800420084d:	8b 45 f4             	mov    -0xc(%rbp),%eax
  8004200850:	89 c2                	mov    %eax,%edx
  8004200852:	ec                   	in     (%dx),%al
  8004200853:	88 45 f3             	mov    %al,-0xd(%rbp)
	return data;
  8004200856:	0f b6 45 f3          	movzbl -0xd(%rbp),%eax
	return inb(COM1+COM_RX);
  800420085a:	0f b6 c0             	movzbl %al,%eax
}
  800420085d:	c9                   	leaveq 
  800420085e:	c3                   	retq   

000000800420085f <serial_intr>:

void
serial_intr(void)
{
  800420085f:	55                   	push   %rbp
  8004200860:	48 89 e5             	mov    %rsp,%rbp
	if (serial_exists)
  8004200863:	48 b8 00 b0 57 04 80 	movabs $0x800457b000,%rax
  800420086a:	00 00 00 
  800420086d:	0f b6 00             	movzbl (%rax),%eax
  8004200870:	84 c0                	test   %al,%al
  8004200872:	74 16                	je     800420088a <serial_intr+0x2b>
		cons_intr(serial_proc_data);
  8004200874:	48 bf 19 08 20 04 80 	movabs $0x8004200819,%rdi
  800420087b:	00 00 00 
  800420087e:	48 b8 2a 11 20 04 80 	movabs $0x800420112a,%rax
  8004200885:	00 00 00 
  8004200888:	ff d0                	callq  *%rax
}
  800420088a:	5d                   	pop    %rbp
  800420088b:	c3                   	retq   

000000800420088c <serial_putc>:

static void
serial_putc(int c)
{
  800420088c:	55                   	push   %rbp
  800420088d:	48 89 e5             	mov    %rsp,%rbp
  8004200890:	48 83 ec 28          	sub    $0x28,%rsp
  8004200894:	89 7d dc             	mov    %edi,-0x24(%rbp)
	int i;

	for (i = 0;
  8004200897:	c7 45 fc 00 00 00 00 	movl   $0x0,-0x4(%rbp)
  800420089e:	eb 10                	jmp    80042008b0 <serial_putc+0x24>
	     !(inb(COM1 + COM_LSR) & COM_LSR_TXRDY) && i < 12800;
	     i++)
		delay();
  80042008a0:	48 b8 cf 07 20 04 80 	movabs $0x80042007cf,%rax
  80042008a7:	00 00 00 
  80042008aa:	ff d0                	callq  *%rax
	     i++)
  80042008ac:	83 45 fc 01          	addl   $0x1,-0x4(%rbp)
  80042008b0:	c7 45 f8 fd 03 00 00 	movl   $0x3fd,-0x8(%rbp)
	__asm __volatile("inb %w1,%0" : "=a" (data) : "d" (port));
  80042008b7:	8b 45 f8             	mov    -0x8(%rbp),%eax
  80042008ba:	89 c2                	mov    %eax,%edx
  80042008bc:	ec                   	in     (%dx),%al
  80042008bd:	88 45 f7             	mov    %al,-0x9(%rbp)
	return data;
  80042008c0:	0f b6 45 f7          	movzbl -0x9(%rbp),%eax
	     !(inb(COM1 + COM_LSR) & COM_LSR_TXRDY) && i < 12800;
  80042008c4:	0f b6 c0             	movzbl %al,%eax
  80042008c7:	83 e0 20             	and    $0x20,%eax
	for (i = 0;
  80042008ca:	85 c0                	test   %eax,%eax
  80042008cc:	75 09                	jne    80042008d7 <serial_putc+0x4b>
	     !(inb(COM1 + COM_LSR) & COM_LSR_TXRDY) && i < 12800;
  80042008ce:	81 7d fc ff 31 00 00 	cmpl   $0x31ff,-0x4(%rbp)
  80042008d5:	7e c9                	jle    80042008a0 <serial_putc+0x14>

	outb(COM1 + COM_TX, c);
  80042008d7:	8b 45 dc             	mov    -0x24(%rbp),%eax
  80042008da:	0f b6 c0             	movzbl %al,%eax
  80042008dd:	c7 45 f0 f8 03 00 00 	movl   $0x3f8,-0x10(%rbp)
  80042008e4:	88 45 ef             	mov    %al,-0x11(%rbp)
	__asm __volatile("outb %0,%w1" : : "a" (data), "d" (port));
  80042008e7:	0f b6 45 ef          	movzbl -0x11(%rbp),%eax
  80042008eb:	8b 55 f0             	mov    -0x10(%rbp),%edx
  80042008ee:	ee                   	out    %al,(%dx)
}
  80042008ef:	c9                   	leaveq 
  80042008f0:	c3                   	retq   

00000080042008f1 <serial_init>:

static void
serial_init(void)
{
  80042008f1:	55                   	push   %rbp
  80042008f2:	48 89 e5             	mov    %rsp,%rbp
  80042008f5:	48 83 ec 50          	sub    $0x50,%rsp
  80042008f9:	c7 45 fc fa 03 00 00 	movl   $0x3fa,-0x4(%rbp)
  8004200900:	c6 45 fb 00          	movb   $0x0,-0x5(%rbp)
  8004200904:	0f b6 45 fb          	movzbl -0x5(%rbp),%eax
  8004200908:	8b 55 fc             	mov    -0x4(%rbp),%edx
  800420090b:	ee                   	out    %al,(%dx)
  800420090c:	c7 45 f4 fb 03 00 00 	movl   $0x3fb,-0xc(%rbp)
  8004200913:	c6 45 f3 80          	movb   $0x80,-0xd(%rbp)
  8004200917:	0f b6 45 f3          	movzbl -0xd(%rbp),%eax
  800420091b:	8b 55 f4             	mov    -0xc(%rbp),%edx
  800420091e:	ee                   	out    %al,(%dx)
  800420091f:	c7 45 ec f8 03 00 00 	movl   $0x3f8,-0x14(%rbp)
  8004200926:	c6 45 eb 0c          	movb   $0xc,-0x15(%rbp)
  800420092a:	0f b6 45 eb          	movzbl -0x15(%rbp),%eax
  800420092e:	8b 55 ec             	mov    -0x14(%rbp),%edx
  8004200931:	ee                   	out    %al,(%dx)
  8004200932:	c7 45 e4 f9 03 00 00 	movl   $0x3f9,-0x1c(%rbp)
  8004200939:	c6 45 e3 00          	movb   $0x0,-0x1d(%rbp)
  800420093d:	0f b6 45 e3          	movzbl -0x1d(%rbp),%eax
  8004200941:	8b 55 e4             	mov    -0x1c(%rbp),%edx
  8004200944:	ee                   	out    %al,(%dx)
  8004200945:	c7 45 dc fb 03 00 00 	movl   $0x3fb,-0x24(%rbp)
  800420094c:	c6 45 db 03          	movb   $0x3,-0x25(%rbp)
  8004200950:	0f b6 45 db          	movzbl -0x25(%rbp),%eax
  8004200954:	8b 55 dc             	mov    -0x24(%rbp),%edx
  8004200957:	ee                   	out    %al,(%dx)
  8004200958:	c7 45 d4 fc 03 00 00 	movl   $0x3fc,-0x2c(%rbp)
  800420095f:	c6 45 d3 00          	movb   $0x0,-0x2d(%rbp)
  8004200963:	0f b6 45 d3          	movzbl -0x2d(%rbp),%eax
  8004200967:	8b 55 d4             	mov    -0x2c(%rbp),%edx
  800420096a:	ee                   	out    %al,(%dx)
  800420096b:	c7 45 cc f9 03 00 00 	movl   $0x3f9,-0x34(%rbp)
  8004200972:	c6 45 cb 01          	movb   $0x1,-0x35(%rbp)
  8004200976:	0f b6 45 cb          	movzbl -0x35(%rbp),%eax
  800420097a:	8b 55 cc             	mov    -0x34(%rbp),%edx
  800420097d:	ee                   	out    %al,(%dx)
  800420097e:	c7 45 c4 fd 03 00 00 	movl   $0x3fd,-0x3c(%rbp)
	__asm __volatile("inb %w1,%0" : "=a" (data) : "d" (port));
  8004200985:	8b 45 c4             	mov    -0x3c(%rbp),%eax
  8004200988:	89 c2                	mov    %eax,%edx
  800420098a:	ec                   	in     (%dx),%al
  800420098b:	88 45 c3             	mov    %al,-0x3d(%rbp)
	return data;
  800420098e:	0f b6 45 c3          	movzbl -0x3d(%rbp),%eax
	// Enable rcv interrupts
	outb(COM1+COM_IER, COM_IER_RDI);

	// Clear any preexisting overrun indications and interrupts
	// Serial port doesn't exist if COM_LSR returns 0xFF
	serial_exists = (inb(COM1+COM_LSR) != 0xFF);
  8004200992:	3c ff                	cmp    $0xff,%al
  8004200994:	0f 95 c2             	setne  %dl
  8004200997:	48 b8 00 b0 57 04 80 	movabs $0x800457b000,%rax
  800420099e:	00 00 00 
  80042009a1:	88 10                	mov    %dl,(%rax)
  80042009a3:	c7 45 bc fa 03 00 00 	movl   $0x3fa,-0x44(%rbp)
	__asm __volatile("inb %w1,%0" : "=a" (data) : "d" (port));
  80042009aa:	8b 45 bc             	mov    -0x44(%rbp),%eax
  80042009ad:	89 c2                	mov    %eax,%edx
  80042009af:	ec                   	in     (%dx),%al
  80042009b0:	88 45 bb             	mov    %al,-0x45(%rbp)
  80042009b3:	c7 45 b4 f8 03 00 00 	movl   $0x3f8,-0x4c(%rbp)
  80042009ba:	8b 45 b4             	mov    -0x4c(%rbp),%eax
  80042009bd:	89 c2                	mov    %eax,%edx
  80042009bf:	ec                   	in     (%dx),%al
  80042009c0:	88 45 b3             	mov    %al,-0x4d(%rbp)
	(void) inb(COM1+COM_IIR);
	(void) inb(COM1+COM_RX);

	// Enable serial interrupts
	if (serial_exists)
  80042009c3:	48 b8 00 b0 57 04 80 	movabs $0x800457b000,%rax
  80042009ca:	00 00 00 
  80042009cd:	0f b6 00             	movzbl (%rax),%eax
  80042009d0:	84 c0                	test   %al,%al
  80042009d2:	74 23                	je     80042009f7 <serial_init+0x106>
		irq_setmask_8259A(irq_mask_8259A & ~(1<<4));
  80042009d4:	48 b8 b2 86 22 04 80 	movabs $0x80042286b2,%rax
  80042009db:	00 00 00 
  80042009de:	0f b7 00             	movzwl (%rax),%eax
  80042009e1:	0f b7 c0             	movzwl %ax,%eax
  80042009e4:	25 ef ff 00 00       	and    $0xffef,%eax
  80042009e9:	89 c7                	mov    %eax,%edi
  80042009eb:	48 b8 9c 93 20 04 80 	movabs $0x800420939c,%rax
  80042009f2:	00 00 00 
  80042009f5:	ff d0                	callq  *%rax
}
  80042009f7:	c9                   	leaveq 
  80042009f8:	c3                   	retq   

00000080042009f9 <lpt_putc>:
// For information on PC parallel port programming, see the class References
// page.

static void
lpt_putc(int c)
{
  80042009f9:	55                   	push   %rbp
  80042009fa:	48 89 e5             	mov    %rsp,%rbp
  80042009fd:	48 83 ec 38          	sub    $0x38,%rsp
  8004200a01:	89 7d cc             	mov    %edi,-0x34(%rbp)
	int i;

	for (i = 0; !(inb(0x378+1) & 0x80) && i < 12800; i++)
  8004200a04:	c7 45 fc 00 00 00 00 	movl   $0x0,-0x4(%rbp)
  8004200a0b:	eb 10                	jmp    8004200a1d <lpt_putc+0x24>
		delay();
  8004200a0d:	48 b8 cf 07 20 04 80 	movabs $0x80042007cf,%rax
  8004200a14:	00 00 00 
  8004200a17:	ff d0                	callq  *%rax
	for (i = 0; !(inb(0x378+1) & 0x80) && i < 12800; i++)
  8004200a19:	83 45 fc 01          	addl   $0x1,-0x4(%rbp)
  8004200a1d:	c7 45 f8 79 03 00 00 	movl   $0x379,-0x8(%rbp)
  8004200a24:	8b 45 f8             	mov    -0x8(%rbp),%eax
  8004200a27:	89 c2                	mov    %eax,%edx
  8004200a29:	ec                   	in     (%dx),%al
  8004200a2a:	88 45 f7             	mov    %al,-0x9(%rbp)
	return data;
  8004200a2d:	0f b6 45 f7          	movzbl -0x9(%rbp),%eax
  8004200a31:	84 c0                	test   %al,%al
  8004200a33:	78 09                	js     8004200a3e <lpt_putc+0x45>
  8004200a35:	81 7d fc ff 31 00 00 	cmpl   $0x31ff,-0x4(%rbp)
  8004200a3c:	7e cf                	jle    8004200a0d <lpt_putc+0x14>
	outb(0x378+0, c);
  8004200a3e:	8b 45 cc             	mov    -0x34(%rbp),%eax
  8004200a41:	0f b6 c0             	movzbl %al,%eax
  8004200a44:	c7 45 f0 78 03 00 00 	movl   $0x378,-0x10(%rbp)
  8004200a4b:	88 45 ef             	mov    %al,-0x11(%rbp)
	__asm __volatile("outb %0,%w1" : : "a" (data), "d" (port));
  8004200a4e:	0f b6 45 ef          	movzbl -0x11(%rbp),%eax
  8004200a52:	8b 55 f0             	mov    -0x10(%rbp),%edx
  8004200a55:	ee                   	out    %al,(%dx)
  8004200a56:	c7 45 e8 7a 03 00 00 	movl   $0x37a,-0x18(%rbp)
  8004200a5d:	c6 45 e7 0d          	movb   $0xd,-0x19(%rbp)
  8004200a61:	0f b6 45 e7          	movzbl -0x19(%rbp),%eax
  8004200a65:	8b 55 e8             	mov    -0x18(%rbp),%edx
  8004200a68:	ee                   	out    %al,(%dx)
  8004200a69:	c7 45 e0 7a 03 00 00 	movl   $0x37a,-0x20(%rbp)
  8004200a70:	c6 45 df 08          	movb   $0x8,-0x21(%rbp)
  8004200a74:	0f b6 45 df          	movzbl -0x21(%rbp),%eax
  8004200a78:	8b 55 e0             	mov    -0x20(%rbp),%edx
  8004200a7b:	ee                   	out    %al,(%dx)
	outb(0x378+2, 0x08|0x04|0x01);
	outb(0x378+2, 0x08);
}
  8004200a7c:	c9                   	leaveq 
  8004200a7d:	c3                   	retq   

0000008004200a7e <cga_init>:
static uint16_t *crt_buf;
static uint16_t crt_pos;

static void
cga_init(void)
{
  8004200a7e:	55                   	push   %rbp
  8004200a7f:	48 89 e5             	mov    %rsp,%rbp
  8004200a82:	48 83 ec 30          	sub    $0x30,%rsp
	volatile uint16_t *cp;
	uint16_t was;
	unsigned pos;

	cp = (uint16_t*) (KERNBASE + CGA_BUF);
  8004200a86:	48 b8 00 80 0b 04 80 	movabs $0x80040b8000,%rax
  8004200a8d:	00 00 00 
  8004200a90:	48 89 45 f8          	mov    %rax,-0x8(%rbp)
	was = *cp;
  8004200a94:	48 8b 45 f8          	mov    -0x8(%rbp),%rax
  8004200a98:	0f b7 00             	movzwl (%rax),%eax
  8004200a9b:	66 89 45 f6          	mov    %ax,-0xa(%rbp)
	*cp = (uint16_t) 0xA55A;
  8004200a9f:	48 8b 45 f8          	mov    -0x8(%rbp),%rax
  8004200aa3:	66 c7 00 5a a5       	movw   $0xa55a,(%rax)
	if (*cp != 0xA55A) {
  8004200aa8:	48 8b 45 f8          	mov    -0x8(%rbp),%rax
  8004200aac:	0f b7 00             	movzwl (%rax),%eax
  8004200aaf:	66 3d 5a a5          	cmp    $0xa55a,%ax
  8004200ab3:	74 20                	je     8004200ad5 <cga_init+0x57>
		cp = (uint16_t*) (KERNBASE + MONO_BUF);
  8004200ab5:	48 b8 00 00 0b 04 80 	movabs $0x80040b0000,%rax
  8004200abc:	00 00 00 
  8004200abf:	48 89 45 f8          	mov    %rax,-0x8(%rbp)
		addr_6845 = MONO_BASE;
  8004200ac3:	48 b8 04 b0 57 04 80 	movabs $0x800457b004,%rax
  8004200aca:	00 00 00 
  8004200acd:	c7 00 b4 03 00 00    	movl   $0x3b4,(%rax)
  8004200ad3:	eb 1b                	jmp    8004200af0 <cga_init+0x72>
	} else {
		*cp = was;
  8004200ad5:	48 8b 45 f8          	mov    -0x8(%rbp),%rax
  8004200ad9:	0f b7 55 f6          	movzwl -0xa(%rbp),%edx
  8004200add:	66 89 10             	mov    %dx,(%rax)
		addr_6845 = CGA_BASE;
  8004200ae0:	48 b8 04 b0 57 04 80 	movabs $0x800457b004,%rax
  8004200ae7:	00 00 00 
  8004200aea:	c7 00 d4 03 00 00    	movl   $0x3d4,(%rax)
	}

	/* Extract cursor location */
	outb(addr_6845, 14);
  8004200af0:	48 b8 04 b0 57 04 80 	movabs $0x800457b004,%rax
  8004200af7:	00 00 00 
  8004200afa:	8b 00                	mov    (%rax),%eax
  8004200afc:	89 45 ec             	mov    %eax,-0x14(%rbp)
  8004200aff:	c6 45 eb 0e          	movb   $0xe,-0x15(%rbp)
  8004200b03:	0f b6 45 eb          	movzbl -0x15(%rbp),%eax
  8004200b07:	8b 55 ec             	mov    -0x14(%rbp),%edx
  8004200b0a:	ee                   	out    %al,(%dx)
	pos = inb(addr_6845 + 1) << 8;
  8004200b0b:	48 b8 04 b0 57 04 80 	movabs $0x800457b004,%rax
  8004200b12:	00 00 00 
  8004200b15:	8b 00                	mov    (%rax),%eax
  8004200b17:	83 c0 01             	add    $0x1,%eax
  8004200b1a:	89 45 e4             	mov    %eax,-0x1c(%rbp)
	__asm __volatile("inb %w1,%0" : "=a" (data) : "d" (port));
  8004200b1d:	8b 45 e4             	mov    -0x1c(%rbp),%eax
  8004200b20:	89 c2                	mov    %eax,%edx
  8004200b22:	ec                   	in     (%dx),%al
  8004200b23:	88 45 e3             	mov    %al,-0x1d(%rbp)
	return data;
  8004200b26:	0f b6 45 e3          	movzbl -0x1d(%rbp),%eax
  8004200b2a:	0f b6 c0             	movzbl %al,%eax
  8004200b2d:	c1 e0 08             	shl    $0x8,%eax
  8004200b30:	89 45 f0             	mov    %eax,-0x10(%rbp)
	outb(addr_6845, 15);
  8004200b33:	48 b8 04 b0 57 04 80 	movabs $0x800457b004,%rax
  8004200b3a:	00 00 00 
  8004200b3d:	8b 00                	mov    (%rax),%eax
  8004200b3f:	89 45 dc             	mov    %eax,-0x24(%rbp)
  8004200b42:	c6 45 db 0f          	movb   $0xf,-0x25(%rbp)
	__asm __volatile("outb %0,%w1" : : "a" (data), "d" (port));
  8004200b46:	0f b6 45 db          	movzbl -0x25(%rbp),%eax
  8004200b4a:	8b 55 dc             	mov    -0x24(%rbp),%edx
  8004200b4d:	ee                   	out    %al,(%dx)
	pos |= inb(addr_6845 + 1);
  8004200b4e:	48 b8 04 b0 57 04 80 	movabs $0x800457b004,%rax
  8004200b55:	00 00 00 
  8004200b58:	8b 00                	mov    (%rax),%eax
  8004200b5a:	83 c0 01             	add    $0x1,%eax
  8004200b5d:	89 45 d4             	mov    %eax,-0x2c(%rbp)
	__asm __volatile("inb %w1,%0" : "=a" (data) : "d" (port));
  8004200b60:	8b 45 d4             	mov    -0x2c(%rbp),%eax
  8004200b63:	89 c2                	mov    %eax,%edx
  8004200b65:	ec                   	in     (%dx),%al
  8004200b66:	88 45 d3             	mov    %al,-0x2d(%rbp)
	return data;
  8004200b69:	0f b6 45 d3          	movzbl -0x2d(%rbp),%eax
  8004200b6d:	0f b6 c0             	movzbl %al,%eax
  8004200b70:	09 45 f0             	or     %eax,-0x10(%rbp)

	crt_buf = (uint16_t*) cp;
  8004200b73:	48 b8 08 b0 57 04 80 	movabs $0x800457b008,%rax
  8004200b7a:	00 00 00 
  8004200b7d:	48 8b 55 f8          	mov    -0x8(%rbp),%rdx
  8004200b81:	48 89 10             	mov    %rdx,(%rax)
	crt_pos = pos;
  8004200b84:	8b 45 f0             	mov    -0x10(%rbp),%eax
  8004200b87:	89 c2                	mov    %eax,%edx
  8004200b89:	48 b8 10 b0 57 04 80 	movabs $0x800457b010,%rax
  8004200b90:	00 00 00 
  8004200b93:	66 89 10             	mov    %dx,(%rax)
}
  8004200b96:	c9                   	leaveq 
  8004200b97:	c3                   	retq   

0000008004200b98 <cga_putc>:



static void
cga_putc(int c)
{
  8004200b98:	55                   	push   %rbp
  8004200b99:	48 89 e5             	mov    %rsp,%rbp
  8004200b9c:	48 83 ec 40          	sub    $0x40,%rsp
  8004200ba0:	89 7d cc             	mov    %edi,-0x34(%rbp)
	// if no attribute given, then use black on white
	if (!(c & ~0xFF))
  8004200ba3:	8b 45 cc             	mov    -0x34(%rbp),%eax
  8004200ba6:	b0 00                	mov    $0x0,%al
  8004200ba8:	85 c0                	test   %eax,%eax
  8004200baa:	75 07                	jne    8004200bb3 <cga_putc+0x1b>
		c |= 0x0700;
  8004200bac:	81 4d cc 00 07 00 00 	orl    $0x700,-0x34(%rbp)

	switch (c & 0xff) {
  8004200bb3:	8b 45 cc             	mov    -0x34(%rbp),%eax
  8004200bb6:	0f b6 c0             	movzbl %al,%eax
  8004200bb9:	83 f8 09             	cmp    $0x9,%eax
  8004200bbc:	0f 84 f6 00 00 00    	je     8004200cb8 <cga_putc+0x120>
  8004200bc2:	83 f8 09             	cmp    $0x9,%eax
  8004200bc5:	7f 0a                	jg     8004200bd1 <cga_putc+0x39>
  8004200bc7:	83 f8 08             	cmp    $0x8,%eax
  8004200bca:	74 18                	je     8004200be4 <cga_putc+0x4c>
  8004200bcc:	e9 3e 01 00 00       	jmpq   8004200d0f <cga_putc+0x177>
  8004200bd1:	83 f8 0a             	cmp    $0xa,%eax
  8004200bd4:	74 75                	je     8004200c4b <cga_putc+0xb3>
  8004200bd6:	83 f8 0d             	cmp    $0xd,%eax
  8004200bd9:	0f 84 89 00 00 00    	je     8004200c68 <cga_putc+0xd0>
  8004200bdf:	e9 2b 01 00 00       	jmpq   8004200d0f <cga_putc+0x177>
	case '\b':
		if (crt_pos > 0) {
  8004200be4:	48 b8 10 b0 57 04 80 	movabs $0x800457b010,%rax
  8004200beb:	00 00 00 
  8004200bee:	0f b7 00             	movzwl (%rax),%eax
  8004200bf1:	66 85 c0             	test   %ax,%ax
  8004200bf4:	74 50                	je     8004200c46 <cga_putc+0xae>
			crt_pos--;
  8004200bf6:	48 b8 10 b0 57 04 80 	movabs $0x800457b010,%rax
  8004200bfd:	00 00 00 
  8004200c00:	0f b7 00             	movzwl (%rax),%eax
  8004200c03:	8d 50 ff             	lea    -0x1(%rax),%edx
  8004200c06:	48 b8 10 b0 57 04 80 	movabs $0x800457b010,%rax
  8004200c0d:	00 00 00 
  8004200c10:	66 89 10             	mov    %dx,(%rax)
			crt_buf[crt_pos] = (c & ~0xff) | ' ';
  8004200c13:	48 b8 08 b0 57 04 80 	movabs $0x800457b008,%rax
  8004200c1a:	00 00 00 
  8004200c1d:	48 8b 10             	mov    (%rax),%rdx
  8004200c20:	48 b8 10 b0 57 04 80 	movabs $0x800457b010,%rax
  8004200c27:	00 00 00 
  8004200c2a:	0f b7 00             	movzwl (%rax),%eax
  8004200c2d:	0f b7 c0             	movzwl %ax,%eax
  8004200c30:	48 01 c0             	add    %rax,%rax
  8004200c33:	48 01 d0             	add    %rdx,%rax
  8004200c36:	8b 55 cc             	mov    -0x34(%rbp),%edx
  8004200c39:	b2 00                	mov    $0x0,%dl
  8004200c3b:	83 ca 20             	or     $0x20,%edx
  8004200c3e:	66 89 10             	mov    %dx,(%rax)
		}
		break;
  8004200c41:	e9 03 01 00 00       	jmpq   8004200d49 <cga_putc+0x1b1>
  8004200c46:	e9 fe 00 00 00       	jmpq   8004200d49 <cga_putc+0x1b1>
	case '\n':
		crt_pos += CRT_COLS;
  8004200c4b:	48 b8 10 b0 57 04 80 	movabs $0x800457b010,%rax
  8004200c52:	00 00 00 
  8004200c55:	0f b7 00             	movzwl (%rax),%eax
  8004200c58:	8d 50 50             	lea    0x50(%rax),%edx
  8004200c5b:	48 b8 10 b0 57 04 80 	movabs $0x800457b010,%rax
  8004200c62:	00 00 00 
  8004200c65:	66 89 10             	mov    %dx,(%rax)
		/* fallthru */
	case '\r':
		crt_pos -= (crt_pos % CRT_COLS);
  8004200c68:	48 b8 10 b0 57 04 80 	movabs $0x800457b010,%rax
  8004200c6f:	00 00 00 
  8004200c72:	0f b7 30             	movzwl (%rax),%esi
  8004200c75:	48 b8 10 b0 57 04 80 	movabs $0x800457b010,%rax
  8004200c7c:	00 00 00 
  8004200c7f:	0f b7 08             	movzwl (%rax),%ecx
  8004200c82:	0f b7 c1             	movzwl %cx,%eax
  8004200c85:	69 c0 cd cc 00 00    	imul   $0xcccd,%eax,%eax
  8004200c8b:	c1 e8 10             	shr    $0x10,%eax
  8004200c8e:	89 c2                	mov    %eax,%edx
  8004200c90:	66 c1 ea 06          	shr    $0x6,%dx
  8004200c94:	89 d0                	mov    %edx,%eax
  8004200c96:	c1 e0 02             	shl    $0x2,%eax
  8004200c99:	01 d0                	add    %edx,%eax
  8004200c9b:	c1 e0 04             	shl    $0x4,%eax
  8004200c9e:	29 c1                	sub    %eax,%ecx
  8004200ca0:	89 ca                	mov    %ecx,%edx
  8004200ca2:	29 d6                	sub    %edx,%esi
  8004200ca4:	89 f2                	mov    %esi,%edx
  8004200ca6:	48 b8 10 b0 57 04 80 	movabs $0x800457b010,%rax
  8004200cad:	00 00 00 
  8004200cb0:	66 89 10             	mov    %dx,(%rax)
		break;
  8004200cb3:	e9 91 00 00 00       	jmpq   8004200d49 <cga_putc+0x1b1>
	case '\t':
		cons_putc(' ');
  8004200cb8:	bf 20 00 00 00       	mov    $0x20,%edi
  8004200cbd:	48 b8 67 12 20 04 80 	movabs $0x8004201267,%rax
  8004200cc4:	00 00 00 
  8004200cc7:	ff d0                	callq  *%rax
		cons_putc(' ');
  8004200cc9:	bf 20 00 00 00       	mov    $0x20,%edi
  8004200cce:	48 b8 67 12 20 04 80 	movabs $0x8004201267,%rax
  8004200cd5:	00 00 00 
  8004200cd8:	ff d0                	callq  *%rax
		cons_putc(' ');
  8004200cda:	bf 20 00 00 00       	mov    $0x20,%edi
  8004200cdf:	48 b8 67 12 20 04 80 	movabs $0x8004201267,%rax
  8004200ce6:	00 00 00 
  8004200ce9:	ff d0                	callq  *%rax
		cons_putc(' ');
  8004200ceb:	bf 20 00 00 00       	mov    $0x20,%edi
  8004200cf0:	48 b8 67 12 20 04 80 	movabs $0x8004201267,%rax
  8004200cf7:	00 00 00 
  8004200cfa:	ff d0                	callq  *%rax
		cons_putc(' ');
  8004200cfc:	bf 20 00 00 00       	mov    $0x20,%edi
  8004200d01:	48 b8 67 12 20 04 80 	movabs $0x8004201267,%rax
  8004200d08:	00 00 00 
  8004200d0b:	ff d0                	callq  *%rax
		break;
  8004200d0d:	eb 3a                	jmp    8004200d49 <cga_putc+0x1b1>
	default:
		crt_buf[crt_pos++] = c;		/* write the character */
  8004200d0f:	48 b8 08 b0 57 04 80 	movabs $0x800457b008,%rax
  8004200d16:	00 00 00 
  8004200d19:	48 8b 30             	mov    (%rax),%rsi
  8004200d1c:	48 b8 10 b0 57 04 80 	movabs $0x800457b010,%rax
  8004200d23:	00 00 00 
  8004200d26:	0f b7 00             	movzwl (%rax),%eax
  8004200d29:	8d 48 01             	lea    0x1(%rax),%ecx
  8004200d2c:	48 ba 10 b0 57 04 80 	movabs $0x800457b010,%rdx
  8004200d33:	00 00 00 
  8004200d36:	66 89 0a             	mov    %cx,(%rdx)
  8004200d39:	0f b7 c0             	movzwl %ax,%eax
  8004200d3c:	48 01 c0             	add    %rax,%rax
  8004200d3f:	48 01 f0             	add    %rsi,%rax
  8004200d42:	8b 55 cc             	mov    -0x34(%rbp),%edx
  8004200d45:	66 89 10             	mov    %dx,(%rax)
		break;
  8004200d48:	90                   	nop
	}

	// What is the purpose of this?
	if (crt_pos >= CRT_SIZE) {
  8004200d49:	48 b8 10 b0 57 04 80 	movabs $0x800457b010,%rax
  8004200d50:	00 00 00 
  8004200d53:	0f b7 00             	movzwl (%rax),%eax
  8004200d56:	66 3d cf 07          	cmp    $0x7cf,%ax
  8004200d5a:	0f 86 89 00 00 00    	jbe    8004200de9 <cga_putc+0x251>
		int i;

		memmove(crt_buf, crt_buf + CRT_COLS, (CRT_SIZE - CRT_COLS) * sizeof(uint16_t));
  8004200d60:	48 b8 08 b0 57 04 80 	movabs $0x800457b008,%rax
  8004200d67:	00 00 00 
  8004200d6a:	48 8b 00             	mov    (%rax),%rax
  8004200d6d:	48 8d 88 a0 00 00 00 	lea    0xa0(%rax),%rcx
  8004200d74:	48 b8 08 b0 57 04 80 	movabs $0x800457b008,%rax
  8004200d7b:	00 00 00 
  8004200d7e:	48 8b 00             	mov    (%rax),%rax
  8004200d81:	ba 00 0f 00 00       	mov    $0xf00,%edx
  8004200d86:	48 89 ce             	mov    %rcx,%rsi
  8004200d89:	48 89 c7             	mov    %rax,%rdi
  8004200d8c:	48 b8 73 c5 20 04 80 	movabs $0x800420c573,%rax
  8004200d93:	00 00 00 
  8004200d96:	ff d0                	callq  *%rax
		for (i = CRT_SIZE - CRT_COLS; i < CRT_SIZE; i++)
  8004200d98:	c7 45 fc 80 07 00 00 	movl   $0x780,-0x4(%rbp)
  8004200d9f:	eb 22                	jmp    8004200dc3 <cga_putc+0x22b>
			crt_buf[i] = 0x0700 | ' ';
  8004200da1:	48 b8 08 b0 57 04 80 	movabs $0x800457b008,%rax
  8004200da8:	00 00 00 
  8004200dab:	48 8b 00             	mov    (%rax),%rax
  8004200dae:	8b 55 fc             	mov    -0x4(%rbp),%edx
  8004200db1:	48 63 d2             	movslq %edx,%rdx
  8004200db4:	48 01 d2             	add    %rdx,%rdx
  8004200db7:	48 01 d0             	add    %rdx,%rax
  8004200dba:	66 c7 00 20 07       	movw   $0x720,(%rax)
		for (i = CRT_SIZE - CRT_COLS; i < CRT_SIZE; i++)
  8004200dbf:	83 45 fc 01          	addl   $0x1,-0x4(%rbp)
  8004200dc3:	81 7d fc cf 07 00 00 	cmpl   $0x7cf,-0x4(%rbp)
  8004200dca:	7e d5                	jle    8004200da1 <cga_putc+0x209>
		crt_pos -= CRT_COLS;
  8004200dcc:	48 b8 10 b0 57 04 80 	movabs $0x800457b010,%rax
  8004200dd3:	00 00 00 
  8004200dd6:	0f b7 00             	movzwl (%rax),%eax
  8004200dd9:	8d 50 b0             	lea    -0x50(%rax),%edx
  8004200ddc:	48 b8 10 b0 57 04 80 	movabs $0x800457b010,%rax
  8004200de3:	00 00 00 
  8004200de6:	66 89 10             	mov    %dx,(%rax)
	}

	/* move that little blinky thing */
	outb(addr_6845, 14);
  8004200de9:	48 b8 04 b0 57 04 80 	movabs $0x800457b004,%rax
  8004200df0:	00 00 00 
  8004200df3:	8b 00                	mov    (%rax),%eax
  8004200df5:	89 45 f8             	mov    %eax,-0x8(%rbp)
  8004200df8:	c6 45 f7 0e          	movb   $0xe,-0x9(%rbp)
	__asm __volatile("outb %0,%w1" : : "a" (data), "d" (port));
  8004200dfc:	0f b6 45 f7          	movzbl -0x9(%rbp),%eax
  8004200e00:	8b 55 f8             	mov    -0x8(%rbp),%edx
  8004200e03:	ee                   	out    %al,(%dx)
	outb(addr_6845 + 1, crt_pos >> 8);
  8004200e04:	48 b8 10 b0 57 04 80 	movabs $0x800457b010,%rax
  8004200e0b:	00 00 00 
  8004200e0e:	0f b7 00             	movzwl (%rax),%eax
  8004200e11:	66 c1 e8 08          	shr    $0x8,%ax
  8004200e15:	0f b6 c0             	movzbl %al,%eax
  8004200e18:	48 ba 04 b0 57 04 80 	movabs $0x800457b004,%rdx
  8004200e1f:	00 00 00 
  8004200e22:	8b 12                	mov    (%rdx),%edx
  8004200e24:	83 c2 01             	add    $0x1,%edx
  8004200e27:	89 55 f0             	mov    %edx,-0x10(%rbp)
  8004200e2a:	88 45 ef             	mov    %al,-0x11(%rbp)
  8004200e2d:	0f b6 45 ef          	movzbl -0x11(%rbp),%eax
  8004200e31:	8b 55 f0             	mov    -0x10(%rbp),%edx
  8004200e34:	ee                   	out    %al,(%dx)
	outb(addr_6845, 15);
  8004200e35:	48 b8 04 b0 57 04 80 	movabs $0x800457b004,%rax
  8004200e3c:	00 00 00 
  8004200e3f:	8b 00                	mov    (%rax),%eax
  8004200e41:	89 45 e8             	mov    %eax,-0x18(%rbp)
  8004200e44:	c6 45 e7 0f          	movb   $0xf,-0x19(%rbp)
  8004200e48:	0f b6 45 e7          	movzbl -0x19(%rbp),%eax
  8004200e4c:	8b 55 e8             	mov    -0x18(%rbp),%edx
  8004200e4f:	ee                   	out    %al,(%dx)
	outb(addr_6845 + 1, crt_pos);
  8004200e50:	48 b8 10 b0 57 04 80 	movabs $0x800457b010,%rax
  8004200e57:	00 00 00 
  8004200e5a:	0f b7 00             	movzwl (%rax),%eax
  8004200e5d:	0f b6 c0             	movzbl %al,%eax
  8004200e60:	48 ba 04 b0 57 04 80 	movabs $0x800457b004,%rdx
  8004200e67:	00 00 00 
  8004200e6a:	8b 12                	mov    (%rdx),%edx
  8004200e6c:	83 c2 01             	add    $0x1,%edx
  8004200e6f:	89 55 e0             	mov    %edx,-0x20(%rbp)
  8004200e72:	88 45 df             	mov    %al,-0x21(%rbp)
  8004200e75:	0f b6 45 df          	movzbl -0x21(%rbp),%eax
  8004200e79:	8b 55 e0             	mov    -0x20(%rbp),%edx
  8004200e7c:	ee                   	out    %al,(%dx)
}
  8004200e7d:	c9                   	leaveq 
  8004200e7e:	c3                   	retq   

0000008004200e7f <kbd_proc_data>:
 * Get data from the keyboard.  If we finish a character, return it.  Else 0.
 * Return -1 if no data.
 */
static int
kbd_proc_data(void)
{
  8004200e7f:	55                   	push   %rbp
  8004200e80:	48 89 e5             	mov    %rsp,%rbp
  8004200e83:	48 83 ec 30          	sub    $0x30,%rsp
  8004200e87:	c7 45 f0 64 00 00 00 	movl   $0x64,-0x10(%rbp)
	__asm __volatile("inb %w1,%0" : "=a" (data) : "d" (port));
  8004200e8e:	8b 45 f0             	mov    -0x10(%rbp),%eax
  8004200e91:	89 c2                	mov    %eax,%edx
  8004200e93:	ec                   	in     (%dx),%al
  8004200e94:	88 45 ef             	mov    %al,-0x11(%rbp)
	return data;
  8004200e97:	0f b6 45 ef          	movzbl -0x11(%rbp),%eax
	int c;
	uint8_t data;
	static uint32_t shift;
	int r;
	if ((inb(KBSTATP) & KBS_DIB) == 0)
  8004200e9b:	0f b6 c0             	movzbl %al,%eax
  8004200e9e:	83 e0 01             	and    $0x1,%eax
  8004200ea1:	85 c0                	test   %eax,%eax
  8004200ea3:	75 0a                	jne    8004200eaf <kbd_proc_data+0x30>
		return -1;
  8004200ea5:	b8 ff ff ff ff       	mov    $0xffffffff,%eax
  8004200eaa:	e9 28 02 00 00       	jmpq   80042010d7 <kbd_proc_data+0x258>
  8004200eaf:	c7 45 e8 60 00 00 00 	movl   $0x60,-0x18(%rbp)
	__asm __volatile("inb %w1,%0" : "=a" (data) : "d" (port));
  8004200eb6:	8b 45 e8             	mov    -0x18(%rbp),%eax
  8004200eb9:	89 c2                	mov    %eax,%edx
  8004200ebb:	ec                   	in     (%dx),%al
  8004200ebc:	88 45 e7             	mov    %al,-0x19(%rbp)
	return data;
  8004200ebf:	0f b6 45 e7          	movzbl -0x19(%rbp),%eax

	data = inb(KBDATAP);
  8004200ec3:	88 45 fb             	mov    %al,-0x5(%rbp)

	if (data == 0xE0) {
  8004200ec6:	80 7d fb e0          	cmpb   $0xe0,-0x5(%rbp)
  8004200eca:	75 27                	jne    8004200ef3 <kbd_proc_data+0x74>
		// E0 escape character
		shift |= E0ESC;
  8004200ecc:	48 b8 48 b2 57 04 80 	movabs $0x800457b248,%rax
  8004200ed3:	00 00 00 
  8004200ed6:	8b 00                	mov    (%rax),%eax
  8004200ed8:	83 c8 40             	or     $0x40,%eax
  8004200edb:	89 c2                	mov    %eax,%edx
  8004200edd:	48 b8 48 b2 57 04 80 	movabs $0x800457b248,%rax
  8004200ee4:	00 00 00 
  8004200ee7:	89 10                	mov    %edx,(%rax)
		return 0;
  8004200ee9:	b8 00 00 00 00       	mov    $0x0,%eax
  8004200eee:	e9 e4 01 00 00       	jmpq   80042010d7 <kbd_proc_data+0x258>
	} else if (data & 0x80) {
  8004200ef3:	0f b6 45 fb          	movzbl -0x5(%rbp),%eax
  8004200ef7:	84 c0                	test   %al,%al
  8004200ef9:	79 65                	jns    8004200f60 <kbd_proc_data+0xe1>
		// Key released
		data = (shift & E0ESC ? data : data & 0x7F);
  8004200efb:	48 b8 48 b2 57 04 80 	movabs $0x800457b248,%rax
  8004200f02:	00 00 00 
  8004200f05:	8b 00                	mov    (%rax),%eax
  8004200f07:	83 e0 40             	and    $0x40,%eax
  8004200f0a:	85 c0                	test   %eax,%eax
  8004200f0c:	75 09                	jne    8004200f17 <kbd_proc_data+0x98>
  8004200f0e:	0f b6 45 fb          	movzbl -0x5(%rbp),%eax
  8004200f12:	83 e0 7f             	and    $0x7f,%eax
  8004200f15:	eb 04                	jmp    8004200f1b <kbd_proc_data+0x9c>
  8004200f17:	0f b6 45 fb          	movzbl -0x5(%rbp),%eax
  8004200f1b:	88 45 fb             	mov    %al,-0x5(%rbp)
		shift &= ~(shiftcode[data] | E0ESC);
  8004200f1e:	0f b6 45 fb          	movzbl -0x5(%rbp),%eax
  8004200f22:	48 ba 80 80 22 04 80 	movabs $0x8004228080,%rdx
  8004200f29:	00 00 00 
  8004200f2c:	48 98                	cltq   
  8004200f2e:	0f b6 04 02          	movzbl (%rdx,%rax,1),%eax
  8004200f32:	83 c8 40             	or     $0x40,%eax
  8004200f35:	0f b6 c0             	movzbl %al,%eax
  8004200f38:	f7 d0                	not    %eax
  8004200f3a:	89 c2                	mov    %eax,%edx
  8004200f3c:	48 b8 48 b2 57 04 80 	movabs $0x800457b248,%rax
  8004200f43:	00 00 00 
  8004200f46:	8b 00                	mov    (%rax),%eax
  8004200f48:	21 c2                	and    %eax,%edx
  8004200f4a:	48 b8 48 b2 57 04 80 	movabs $0x800457b248,%rax
  8004200f51:	00 00 00 
  8004200f54:	89 10                	mov    %edx,(%rax)
		return 0;
  8004200f56:	b8 00 00 00 00       	mov    $0x0,%eax
  8004200f5b:	e9 77 01 00 00       	jmpq   80042010d7 <kbd_proc_data+0x258>
	} else if (shift & E0ESC) {
  8004200f60:	48 b8 48 b2 57 04 80 	movabs $0x800457b248,%rax
  8004200f67:	00 00 00 
  8004200f6a:	8b 00                	mov    (%rax),%eax
  8004200f6c:	83 e0 40             	and    $0x40,%eax
  8004200f6f:	85 c0                	test   %eax,%eax
  8004200f71:	74 21                	je     8004200f94 <kbd_proc_data+0x115>
		// Last character was an E0 escape; or with 0x80
		data |= 0x80;
  8004200f73:	80 4d fb 80          	orb    $0x80,-0x5(%rbp)
		shift &= ~E0ESC;
  8004200f77:	48 b8 48 b2 57 04 80 	movabs $0x800457b248,%rax
  8004200f7e:	00 00 00 
  8004200f81:	8b 00                	mov    (%rax),%eax
  8004200f83:	83 e0 bf             	and    $0xffffffbf,%eax
  8004200f86:	89 c2                	mov    %eax,%edx
  8004200f88:	48 b8 48 b2 57 04 80 	movabs $0x800457b248,%rax
  8004200f8f:	00 00 00 
  8004200f92:	89 10                	mov    %edx,(%rax)
	}

	shift |= shiftcode[data];
  8004200f94:	0f b6 45 fb          	movzbl -0x5(%rbp),%eax
  8004200f98:	48 ba 80 80 22 04 80 	movabs $0x8004228080,%rdx
  8004200f9f:	00 00 00 
  8004200fa2:	48 98                	cltq   
  8004200fa4:	0f b6 04 02          	movzbl (%rdx,%rax,1),%eax
  8004200fa8:	0f b6 d0             	movzbl %al,%edx
  8004200fab:	48 b8 48 b2 57 04 80 	movabs $0x800457b248,%rax
  8004200fb2:	00 00 00 
  8004200fb5:	8b 00                	mov    (%rax),%eax
  8004200fb7:	09 c2                	or     %eax,%edx
  8004200fb9:	48 b8 48 b2 57 04 80 	movabs $0x800457b248,%rax
  8004200fc0:	00 00 00 
  8004200fc3:	89 10                	mov    %edx,(%rax)
	shift ^= togglecode[data];
  8004200fc5:	0f b6 45 fb          	movzbl -0x5(%rbp),%eax
  8004200fc9:	48 ba 80 81 22 04 80 	movabs $0x8004228180,%rdx
  8004200fd0:	00 00 00 
  8004200fd3:	48 98                	cltq   
  8004200fd5:	0f b6 04 02          	movzbl (%rdx,%rax,1),%eax
  8004200fd9:	0f b6 d0             	movzbl %al,%edx
  8004200fdc:	48 b8 48 b2 57 04 80 	movabs $0x800457b248,%rax
  8004200fe3:	00 00 00 
  8004200fe6:	8b 00                	mov    (%rax),%eax
  8004200fe8:	31 c2                	xor    %eax,%edx
  8004200fea:	48 b8 48 b2 57 04 80 	movabs $0x800457b248,%rax
  8004200ff1:	00 00 00 
  8004200ff4:	89 10                	mov    %edx,(%rax)

	c = charcode[shift & (CTL | SHIFT)][data];
  8004200ff6:	48 b8 48 b2 57 04 80 	movabs $0x800457b248,%rax
  8004200ffd:	00 00 00 
  8004201000:	8b 00                	mov    (%rax),%eax
  8004201002:	83 e0 03             	and    $0x3,%eax
  8004201005:	89 c2                	mov    %eax,%edx
  8004201007:	48 b8 80 85 22 04 80 	movabs $0x8004228580,%rax
  800420100e:	00 00 00 
  8004201011:	89 d2                	mov    %edx,%edx
  8004201013:	48 8b 14 d0          	mov    (%rax,%rdx,8),%rdx
  8004201017:	0f b6 45 fb          	movzbl -0x5(%rbp),%eax
  800420101b:	48 01 d0             	add    %rdx,%rax
  800420101e:	0f b6 00             	movzbl (%rax),%eax
  8004201021:	0f b6 c0             	movzbl %al,%eax
  8004201024:	89 45 fc             	mov    %eax,-0x4(%rbp)
	if (shift & CAPSLOCK) {
  8004201027:	48 b8 48 b2 57 04 80 	movabs $0x800457b248,%rax
  800420102e:	00 00 00 
  8004201031:	8b 00                	mov    (%rax),%eax
  8004201033:	83 e0 08             	and    $0x8,%eax
  8004201036:	85 c0                	test   %eax,%eax
  8004201038:	74 22                	je     800420105c <kbd_proc_data+0x1dd>
		if ('a' <= c && c <= 'z')
  800420103a:	83 7d fc 60          	cmpl   $0x60,-0x4(%rbp)
  800420103e:	7e 0c                	jle    800420104c <kbd_proc_data+0x1cd>
  8004201040:	83 7d fc 7a          	cmpl   $0x7a,-0x4(%rbp)
  8004201044:	7f 06                	jg     800420104c <kbd_proc_data+0x1cd>
			c += 'A' - 'a';
  8004201046:	83 6d fc 20          	subl   $0x20,-0x4(%rbp)
  800420104a:	eb 10                	jmp    800420105c <kbd_proc_data+0x1dd>
		else if ('A' <= c && c <= 'Z')
  800420104c:	83 7d fc 40          	cmpl   $0x40,-0x4(%rbp)
  8004201050:	7e 0a                	jle    800420105c <kbd_proc_data+0x1dd>
  8004201052:	83 7d fc 5a          	cmpl   $0x5a,-0x4(%rbp)
  8004201056:	7f 04                	jg     800420105c <kbd_proc_data+0x1dd>
			c += 'a' - 'A';
  8004201058:	83 45 fc 20          	addl   $0x20,-0x4(%rbp)
	}

	// Process special keys
	// Ctrl-Alt-Del: reboot
	if (!(~shift & (CTL | ALT)) && c == KEY_DEL) {
  800420105c:	48 b8 48 b2 57 04 80 	movabs $0x800457b248,%rax
  8004201063:	00 00 00 
  8004201066:	8b 00                	mov    (%rax),%eax
  8004201068:	f7 d0                	not    %eax
  800420106a:	83 e0 06             	and    $0x6,%eax
  800420106d:	85 c0                	test   %eax,%eax
  800420106f:	75 37                	jne    80042010a8 <kbd_proc_data+0x229>
  8004201071:	81 7d fc e9 00 00 00 	cmpl   $0xe9,-0x4(%rbp)
  8004201078:	75 2e                	jne    80042010a8 <kbd_proc_data+0x229>
		cprintf("Rebooting!\n");
  800420107a:	48 bf 7e 47 21 04 80 	movabs $0x800421477e,%rdi
  8004201081:	00 00 00 
  8004201084:	b8 00 00 00 00       	mov    $0x0,%eax
  8004201089:	48 ba 4a 95 20 04 80 	movabs $0x800420954a,%rdx
  8004201090:	00 00 00 
  8004201093:	ff d2                	callq  *%rdx
  8004201095:	c7 45 e0 92 00 00 00 	movl   $0x92,-0x20(%rbp)
  800420109c:	c6 45 df 03          	movb   $0x3,-0x21(%rbp)
	__asm __volatile("outb %0,%w1" : : "a" (data), "d" (port));
  80042010a0:	0f b6 45 df          	movzbl -0x21(%rbp),%eax
  80042010a4:	8b 55 e0             	mov    -0x20(%rbp),%edx
  80042010a7:	ee                   	out    %al,(%dx)
		outb(0x92, 0x3); // courtesy of Chris Frost
	}
#ifdef VMM_GUEST
	if (c == 0x1b) {
  80042010a8:	83 7d fc 1b          	cmpl   $0x1b,-0x4(%rbp)
  80042010ac:	75 26                	jne    80042010d4 <kbd_proc_data+0x255>
		cprintf("ESC pressed\n");
  80042010ae:	48 bf 8a 47 21 04 80 	movabs $0x800421478a,%rdi
  80042010b5:	00 00 00 
  80042010b8:	b8 00 00 00 00       	mov    $0x0,%eax
  80042010bd:	48 ba 4a 95 20 04 80 	movabs $0x800420954a,%rdx
  80042010c4:	00 00 00 
  80042010c7:	ff d2                	callq  *%rdx
		asm("vmcall":"=a"(r): "0"(VMX_VMCALL_BACKTOHOST));
  80042010c9:	b8 05 00 00 00       	mov    $0x5,%eax
  80042010ce:	0f 01 c1             	vmcall 
  80042010d1:	89 45 f4             	mov    %eax,-0xc(%rbp)
	}
#endif
	return c;
  80042010d4:	8b 45 fc             	mov    -0x4(%rbp),%eax
}
  80042010d7:	c9                   	leaveq 
  80042010d8:	c3                   	retq   

00000080042010d9 <kbd_intr>:

void
kbd_intr(void)
{
  80042010d9:	55                   	push   %rbp
  80042010da:	48 89 e5             	mov    %rsp,%rbp
	cons_intr(kbd_proc_data);
  80042010dd:	48 bf 7f 0e 20 04 80 	movabs $0x8004200e7f,%rdi
  80042010e4:	00 00 00 
  80042010e7:	48 b8 2a 11 20 04 80 	movabs $0x800420112a,%rax
  80042010ee:	00 00 00 
  80042010f1:	ff d0                	callq  *%rax
}
  80042010f3:	5d                   	pop    %rbp
  80042010f4:	c3                   	retq   

00000080042010f5 <kbd_init>:

static void
kbd_init(void)
{
  80042010f5:	55                   	push   %rbp
  80042010f6:	48 89 e5             	mov    %rsp,%rbp
	// Drain the kbd buffer so that Bochs generates interrupts.
	kbd_intr();
  80042010f9:	48 b8 d9 10 20 04 80 	movabs $0x80042010d9,%rax
  8004201100:	00 00 00 
  8004201103:	ff d0                	callq  *%rax
	irq_setmask_8259A(irq_mask_8259A & ~(1<<1));
  8004201105:	48 b8 b2 86 22 04 80 	movabs $0x80042286b2,%rax
  800420110c:	00 00 00 
  800420110f:	0f b7 00             	movzwl (%rax),%eax
  8004201112:	0f b7 c0             	movzwl %ax,%eax
  8004201115:	25 fd ff 00 00       	and    $0xfffd,%eax
  800420111a:	89 c7                	mov    %eax,%edi
  800420111c:	48 b8 9c 93 20 04 80 	movabs $0x800420939c,%rax
  8004201123:	00 00 00 
  8004201126:	ff d0                	callq  *%rax
}
  8004201128:	5d                   	pop    %rbp
  8004201129:	c3                   	retq   

000000800420112a <cons_intr>:

// called by device interrupt routines to feed input characters
// into the circular console input buffer.
static void
cons_intr(int (*proc)(void))
{
  800420112a:	55                   	push   %rbp
  800420112b:	48 89 e5             	mov    %rsp,%rbp
  800420112e:	48 83 ec 20          	sub    $0x20,%rsp
  8004201132:	48 89 7d e8          	mov    %rdi,-0x18(%rbp)
	int c;

	while ((c = (*proc)()) != -1) {
  8004201136:	eb 6a                	jmp    80042011a2 <cons_intr+0x78>
		if (c == 0)
  8004201138:	83 7d fc 00          	cmpl   $0x0,-0x4(%rbp)
  800420113c:	75 02                	jne    8004201140 <cons_intr+0x16>
			continue;
  800420113e:	eb 62                	jmp    80042011a2 <cons_intr+0x78>
		cons.buf[cons.wpos++] = c;
  8004201140:	48 b8 40 b0 57 04 80 	movabs $0x800457b040,%rax
  8004201147:	00 00 00 
  800420114a:	8b 80 04 02 00 00    	mov    0x204(%rax),%eax
  8004201150:	8d 48 01             	lea    0x1(%rax),%ecx
  8004201153:	48 ba 40 b0 57 04 80 	movabs $0x800457b040,%rdx
  800420115a:	00 00 00 
  800420115d:	89 8a 04 02 00 00    	mov    %ecx,0x204(%rdx)
  8004201163:	8b 55 fc             	mov    -0x4(%rbp),%edx
  8004201166:	89 d1                	mov    %edx,%ecx
  8004201168:	48 ba 40 b0 57 04 80 	movabs $0x800457b040,%rdx
  800420116f:	00 00 00 
  8004201172:	89 c0                	mov    %eax,%eax
  8004201174:	88 0c 02             	mov    %cl,(%rdx,%rax,1)
		if (cons.wpos == CONSBUFSIZE)
  8004201177:	48 b8 40 b0 57 04 80 	movabs $0x800457b040,%rax
  800420117e:	00 00 00 
  8004201181:	8b 80 04 02 00 00    	mov    0x204(%rax),%eax
  8004201187:	3d 00 02 00 00       	cmp    $0x200,%eax
  800420118c:	75 14                	jne    80042011a2 <cons_intr+0x78>
			cons.wpos = 0;
  800420118e:	48 b8 40 b0 57 04 80 	movabs $0x800457b040,%rax
  8004201195:	00 00 00 
  8004201198:	c7 80 04 02 00 00 00 	movl   $0x0,0x204(%rax)
  800420119f:	00 00 00 
	while ((c = (*proc)()) != -1) {
  80042011a2:	48 8b 45 e8          	mov    -0x18(%rbp),%rax
  80042011a6:	ff d0                	callq  *%rax
  80042011a8:	89 45 fc             	mov    %eax,-0x4(%rbp)
  80042011ab:	83 7d fc ff          	cmpl   $0xffffffff,-0x4(%rbp)
  80042011af:	75 87                	jne    8004201138 <cons_intr+0xe>
	}
}
  80042011b1:	c9                   	leaveq 
  80042011b2:	c3                   	retq   

00000080042011b3 <cons_getc>:

// return the next input character from the console, or 0 if none waiting
int
cons_getc(void)
{
  80042011b3:	55                   	push   %rbp
  80042011b4:	48 89 e5             	mov    %rsp,%rbp
  80042011b7:	48 83 ec 10          	sub    $0x10,%rsp
	int c;

	// poll for any pending input characters,
	// so that this function works even when interrupts are disabled
	// (e.g., when called from the kernel monitor).
	serial_intr();
  80042011bb:	48 b8 5f 08 20 04 80 	movabs $0x800420085f,%rax
  80042011c2:	00 00 00 
  80042011c5:	ff d0                	callq  *%rax
	kbd_intr();
  80042011c7:	48 b8 d9 10 20 04 80 	movabs $0x80042010d9,%rax
  80042011ce:	00 00 00 
  80042011d1:	ff d0                	callq  *%rax

	// grab the next character from the input buffer.
	if (cons.rpos != cons.wpos) {
  80042011d3:	48 b8 40 b0 57 04 80 	movabs $0x800457b040,%rax
  80042011da:	00 00 00 
  80042011dd:	8b 90 00 02 00 00    	mov    0x200(%rax),%edx
  80042011e3:	48 b8 40 b0 57 04 80 	movabs $0x800457b040,%rax
  80042011ea:	00 00 00 
  80042011ed:	8b 80 04 02 00 00    	mov    0x204(%rax),%eax
  80042011f3:	39 c2                	cmp    %eax,%edx
  80042011f5:	74 69                	je     8004201260 <cons_getc+0xad>
		c = cons.buf[cons.rpos++];
  80042011f7:	48 b8 40 b0 57 04 80 	movabs $0x800457b040,%rax
  80042011fe:	00 00 00 
  8004201201:	8b 80 00 02 00 00    	mov    0x200(%rax),%eax
  8004201207:	8d 48 01             	lea    0x1(%rax),%ecx
  800420120a:	48 ba 40 b0 57 04 80 	movabs $0x800457b040,%rdx
  8004201211:	00 00 00 
  8004201214:	89 8a 00 02 00 00    	mov    %ecx,0x200(%rdx)
  800420121a:	48 ba 40 b0 57 04 80 	movabs $0x800457b040,%rdx
  8004201221:	00 00 00 
  8004201224:	89 c0                	mov    %eax,%eax
  8004201226:	0f b6 04 02          	movzbl (%rdx,%rax,1),%eax
  800420122a:	0f b6 c0             	movzbl %al,%eax
  800420122d:	89 45 fc             	mov    %eax,-0x4(%rbp)
		if (cons.rpos == CONSBUFSIZE)
  8004201230:	48 b8 40 b0 57 04 80 	movabs $0x800457b040,%rax
  8004201237:	00 00 00 
  800420123a:	8b 80 00 02 00 00    	mov    0x200(%rax),%eax
  8004201240:	3d 00 02 00 00       	cmp    $0x200,%eax
  8004201245:	75 14                	jne    800420125b <cons_getc+0xa8>
			cons.rpos = 0;
  8004201247:	48 b8 40 b0 57 04 80 	movabs $0x800457b040,%rax
  800420124e:	00 00 00 
  8004201251:	c7 80 00 02 00 00 00 	movl   $0x0,0x200(%rax)
  8004201258:	00 00 00 
		return c;
  800420125b:	8b 45 fc             	mov    -0x4(%rbp),%eax
  800420125e:	eb 05                	jmp    8004201265 <cons_getc+0xb2>
	}
	return 0;
  8004201260:	b8 00 00 00 00       	mov    $0x0,%eax
}
  8004201265:	c9                   	leaveq 
  8004201266:	c3                   	retq   

0000008004201267 <cons_putc>:

// output a character to the console
static void
cons_putc(int c)
{
  8004201267:	55                   	push   %rbp
  8004201268:	48 89 e5             	mov    %rsp,%rbp
  800420126b:	48 83 ec 10          	sub    $0x10,%rsp
  800420126f:	89 7d fc             	mov    %edi,-0x4(%rbp)
	serial_putc(c);
  8004201272:	8b 45 fc             	mov    -0x4(%rbp),%eax
  8004201275:	89 c7                	mov    %eax,%edi
  8004201277:	48 b8 8c 08 20 04 80 	movabs $0x800420088c,%rax
  800420127e:	00 00 00 
  8004201281:	ff d0                	callq  *%rax
	lpt_putc(c);
  8004201283:	8b 45 fc             	mov    -0x4(%rbp),%eax
  8004201286:	89 c7                	mov    %eax,%edi
  8004201288:	48 b8 f9 09 20 04 80 	movabs $0x80042009f9,%rax
  800420128f:	00 00 00 
  8004201292:	ff d0                	callq  *%rax
	cga_putc(c);
  8004201294:	8b 45 fc             	mov    -0x4(%rbp),%eax
  8004201297:	89 c7                	mov    %eax,%edi
  8004201299:	48 b8 98 0b 20 04 80 	movabs $0x8004200b98,%rax
  80042012a0:	00 00 00 
  80042012a3:	ff d0                	callq  *%rax
}
  80042012a5:	c9                   	leaveq 
  80042012a6:	c3                   	retq   

00000080042012a7 <cons_init>:

// initialize the console devices
void
cons_init(void)
{
  80042012a7:	55                   	push   %rbp
  80042012a8:	48 89 e5             	mov    %rsp,%rbp
	cga_init();
  80042012ab:	48 b8 7e 0a 20 04 80 	movabs $0x8004200a7e,%rax
  80042012b2:	00 00 00 
  80042012b5:	ff d0                	callq  *%rax
	kbd_init();
  80042012b7:	48 b8 f5 10 20 04 80 	movabs $0x80042010f5,%rax
  80042012be:	00 00 00 
  80042012c1:	ff d0                	callq  *%rax
	serial_init();
  80042012c3:	48 b8 f1 08 20 04 80 	movabs $0x80042008f1,%rax
  80042012ca:	00 00 00 
  80042012cd:	ff d0                	callq  *%rax

	if (!serial_exists)
  80042012cf:	48 b8 00 b0 57 04 80 	movabs $0x800457b000,%rax
  80042012d6:	00 00 00 
  80042012d9:	0f b6 00             	movzbl (%rax),%eax
  80042012dc:	83 f0 01             	xor    $0x1,%eax
  80042012df:	84 c0                	test   %al,%al
  80042012e1:	74 1b                	je     80042012fe <cons_init+0x57>
		cprintf("Serial port does not exist!\n");
  80042012e3:	48 bf 97 47 21 04 80 	movabs $0x8004214797,%rdi
  80042012ea:	00 00 00 
  80042012ed:	b8 00 00 00 00       	mov    $0x0,%eax
  80042012f2:	48 ba 4a 95 20 04 80 	movabs $0x800420954a,%rdx
  80042012f9:	00 00 00 
  80042012fc:	ff d2                	callq  *%rdx
}
  80042012fe:	5d                   	pop    %rbp
  80042012ff:	c3                   	retq   

0000008004201300 <cputchar>:

// `High'-level console I/O.  Used by readline and cprintf.

void
cputchar(int c)
{
  8004201300:	55                   	push   %rbp
  8004201301:	48 89 e5             	mov    %rsp,%rbp
  8004201304:	48 83 ec 10          	sub    $0x10,%rsp
  8004201308:	89 7d fc             	mov    %edi,-0x4(%rbp)
	cons_putc(c);
  800420130b:	8b 45 fc             	mov    -0x4(%rbp),%eax
  800420130e:	89 c7                	mov    %eax,%edi
  8004201310:	48 b8 67 12 20 04 80 	movabs $0x8004201267,%rax
  8004201317:	00 00 00 
  800420131a:	ff d0                	callq  *%rax
}
  800420131c:	c9                   	leaveq 
  800420131d:	c3                   	retq   

000000800420131e <getchar>:

int
getchar(void)
{
  800420131e:	55                   	push   %rbp
  800420131f:	48 89 e5             	mov    %rsp,%rbp
  8004201322:	48 83 ec 10          	sub    $0x10,%rsp
	int c;

	while ((c = cons_getc()) == 0)
  8004201326:	48 b8 b3 11 20 04 80 	movabs $0x80042011b3,%rax
  800420132d:	00 00 00 
  8004201330:	ff d0                	callq  *%rax
  8004201332:	89 45 fc             	mov    %eax,-0x4(%rbp)
  8004201335:	83 7d fc 00          	cmpl   $0x0,-0x4(%rbp)
  8004201339:	74 eb                	je     8004201326 <getchar+0x8>
		/* do nothing */;
	return c;
  800420133b:	8b 45 fc             	mov    -0x4(%rbp),%eax
}
  800420133e:	c9                   	leaveq 
  800420133f:	c3                   	retq   

0000008004201340 <iscons>:

int
iscons(int fdnum)
{
  8004201340:	55                   	push   %rbp
  8004201341:	48 89 e5             	mov    %rsp,%rbp
  8004201344:	48 83 ec 08          	sub    $0x8,%rsp
  8004201348:	89 7d fc             	mov    %edi,-0x4(%rbp)
	// used by readline
	return 1;
  800420134b:	b8 01 00 00 00       	mov    $0x1,%eax
}
  8004201350:	c9                   	leaveq 
  8004201351:	c3                   	retq   

0000008004201352 <mon_help>:

/***** Implementations of basic kernel monitor commands *****/

int
mon_help(int argc, char **argv, struct Trapframe *tf)
{
  8004201352:	55                   	push   %rbp
  8004201353:	48 89 e5             	mov    %rsp,%rbp
  8004201356:	48 83 ec 30          	sub    $0x30,%rsp
  800420135a:	89 7d ec             	mov    %edi,-0x14(%rbp)
  800420135d:	48 89 75 e0          	mov    %rsi,-0x20(%rbp)
  8004201361:	48 89 55 d8          	mov    %rdx,-0x28(%rbp)
	int i;

	for (i = 0; i < NCOMMANDS; i++)
  8004201365:	c7 45 fc 00 00 00 00 	movl   $0x0,-0x4(%rbp)
  800420136c:	eb 6c                	jmp    80042013da <mon_help+0x88>
		cprintf("%s - %s\n", commands[i].name, commands[i].desc);
  800420136e:	48 b9 c0 85 22 04 80 	movabs $0x80042285c0,%rcx
  8004201375:	00 00 00 
  8004201378:	8b 45 fc             	mov    -0x4(%rbp),%eax
  800420137b:	48 63 d0             	movslq %eax,%rdx
  800420137e:	48 89 d0             	mov    %rdx,%rax
  8004201381:	48 01 c0             	add    %rax,%rax
  8004201384:	48 01 d0             	add    %rdx,%rax
  8004201387:	48 c1 e0 03          	shl    $0x3,%rax
  800420138b:	48 01 c8             	add    %rcx,%rax
  800420138e:	48 8b 48 08          	mov    0x8(%rax),%rcx
  8004201392:	48 be c0 85 22 04 80 	movabs $0x80042285c0,%rsi
  8004201399:	00 00 00 
  800420139c:	8b 45 fc             	mov    -0x4(%rbp),%eax
  800420139f:	48 63 d0             	movslq %eax,%rdx
  80042013a2:	48 89 d0             	mov    %rdx,%rax
  80042013a5:	48 01 c0             	add    %rax,%rax
  80042013a8:	48 01 d0             	add    %rdx,%rax
  80042013ab:	48 c1 e0 03          	shl    $0x3,%rax
  80042013af:	48 01 f0             	add    %rsi,%rax
  80042013b2:	48 8b 00             	mov    (%rax),%rax
  80042013b5:	48 89 ca             	mov    %rcx,%rdx
  80042013b8:	48 89 c6             	mov    %rax,%rsi
  80042013bb:	48 bf 45 48 21 04 80 	movabs $0x8004214845,%rdi
  80042013c2:	00 00 00 
  80042013c5:	b8 00 00 00 00       	mov    $0x0,%eax
  80042013ca:	48 b9 4a 95 20 04 80 	movabs $0x800420954a,%rcx
  80042013d1:	00 00 00 
  80042013d4:	ff d1                	callq  *%rcx
	for (i = 0; i < NCOMMANDS; i++)
  80042013d6:	83 45 fc 01          	addl   $0x1,-0x4(%rbp)
  80042013da:	8b 45 fc             	mov    -0x4(%rbp),%eax
  80042013dd:	83 f8 03             	cmp    $0x3,%eax
  80042013e0:	76 8c                	jbe    800420136e <mon_help+0x1c>
	return 0;
  80042013e2:	b8 00 00 00 00       	mov    $0x0,%eax
}
  80042013e7:	c9                   	leaveq 
  80042013e8:	c3                   	retq   

00000080042013e9 <mon_kerninfo>:

int
mon_kerninfo(int argc, char **argv, struct Trapframe *tf)
{
  80042013e9:	55                   	push   %rbp
  80042013ea:	48 89 e5             	mov    %rsp,%rbp
  80042013ed:	48 83 ec 30          	sub    $0x30,%rsp
  80042013f1:	89 7d ec             	mov    %edi,-0x14(%rbp)
  80042013f4:	48 89 75 e0          	mov    %rsi,-0x20(%rbp)
  80042013f8:	48 89 55 d8          	mov    %rdx,-0x28(%rbp)
	extern char _start[], entry[], etext[], edata[], end[];

	cprintf("Special kernel symbols:\n");
  80042013fc:	48 bf 4e 48 21 04 80 	movabs $0x800421484e,%rdi
  8004201403:	00 00 00 
  8004201406:	b8 00 00 00 00       	mov    $0x0,%eax
  800420140b:	48 ba 4a 95 20 04 80 	movabs $0x800420954a,%rdx
  8004201412:	00 00 00 
  8004201415:	ff d2                	callq  *%rdx
	cprintf("  _start                  %08x (phys)\n", _start);
  8004201417:	48 be 0c 00 20 00 00 	movabs $0x20000c,%rsi
  800420141e:	00 00 00 
  8004201421:	48 bf 68 48 21 04 80 	movabs $0x8004214868,%rdi
  8004201428:	00 00 00 
  800420142b:	b8 00 00 00 00       	mov    $0x0,%eax
  8004201430:	48 ba 4a 95 20 04 80 	movabs $0x800420954a,%rdx
  8004201437:	00 00 00 
  800420143a:	ff d2                	callq  *%rdx
	cprintf("  entry  %08x (virt)  %08x (phys)\n", entry, entry - KERNBASE);
  800420143c:	48 ba 0c 00 20 00 00 	movabs $0x20000c,%rdx
  8004201443:	00 00 00 
  8004201446:	48 be 0c 00 20 04 80 	movabs $0x800420000c,%rsi
  800420144d:	00 00 00 
  8004201450:	48 bf 90 48 21 04 80 	movabs $0x8004214890,%rdi
  8004201457:	00 00 00 
  800420145a:	b8 00 00 00 00       	mov    $0x0,%eax
  800420145f:	48 b9 4a 95 20 04 80 	movabs $0x800420954a,%rcx
  8004201466:	00 00 00 
  8004201469:	ff d1                	callq  *%rcx
	cprintf("  etext  %08x (virt)  %08x (phys)\n", etext, etext - KERNBASE);
  800420146b:	48 ba 3d 46 21 00 00 	movabs $0x21463d,%rdx
  8004201472:	00 00 00 
  8004201475:	48 be 3d 46 21 04 80 	movabs $0x800421463d,%rsi
  800420147c:	00 00 00 
  800420147f:	48 bf b8 48 21 04 80 	movabs $0x80042148b8,%rdi
  8004201486:	00 00 00 
  8004201489:	b8 00 00 00 00       	mov    $0x0,%eax
  800420148e:	48 b9 4a 95 20 04 80 	movabs $0x800420954a,%rcx
  8004201495:	00 00 00 
  8004201498:	ff d1                	callq  *%rcx
	cprintf("  edata  %08x (virt)  %08x (phys)\n", edata, edata - KERNBASE);
  800420149a:	48 ba 18 a2 57 00 00 	movabs $0x57a218,%rdx
  80042014a1:	00 00 00 
  80042014a4:	48 be 18 a2 57 04 80 	movabs $0x800457a218,%rsi
  80042014ab:	00 00 00 
  80042014ae:	48 bf e0 48 21 04 80 	movabs $0x80042148e0,%rdi
  80042014b5:	00 00 00 
  80042014b8:	b8 00 00 00 00       	mov    $0x0,%eax
  80042014bd:	48 b9 4a 95 20 04 80 	movabs $0x800420954a,%rcx
  80042014c4:	00 00 00 
  80042014c7:	ff d1                	callq  *%rcx
	cprintf("  end    %08x (virt)  %08x (phys)\n", end, end - KERNBASE);
  80042014c9:	48 ba 10 f0 5b 00 00 	movabs $0x5bf010,%rdx
  80042014d0:	00 00 00 
  80042014d3:	48 be 10 f0 5b 04 80 	movabs $0x80045bf010,%rsi
  80042014da:	00 00 00 
  80042014dd:	48 bf 08 49 21 04 80 	movabs $0x8004214908,%rdi
  80042014e4:	00 00 00 
  80042014e7:	b8 00 00 00 00       	mov    $0x0,%eax
  80042014ec:	48 b9 4a 95 20 04 80 	movabs $0x800420954a,%rcx
  80042014f3:	00 00 00 
  80042014f6:	ff d1                	callq  *%rcx
	cprintf("Kernel executable memory footprint: %dKB\n",
		ROUNDUP(end - entry, 1024) / 1024);
  80042014f8:	48 c7 45 f8 00 04 00 	movq   $0x400,-0x8(%rbp)
  80042014ff:	00 
  8004201500:	48 b8 0c 00 20 04 80 	movabs $0x800420000c,%rax
  8004201507:	00 00 00 
  800420150a:	48 8b 55 f8          	mov    -0x8(%rbp),%rdx
  800420150e:	48 29 c2             	sub    %rax,%rdx
  8004201511:	48 b8 10 f0 5b 04 80 	movabs $0x80045bf010,%rax
  8004201518:	00 00 00 
  800420151b:	48 83 e8 01          	sub    $0x1,%rax
  800420151f:	48 01 d0             	add    %rdx,%rax
  8004201522:	48 89 45 f0          	mov    %rax,-0x10(%rbp)
  8004201526:	48 8b 45 f0          	mov    -0x10(%rbp),%rax
  800420152a:	ba 00 00 00 00       	mov    $0x0,%edx
  800420152f:	48 f7 75 f8          	divq   -0x8(%rbp)
  8004201533:	48 8b 45 f0          	mov    -0x10(%rbp),%rax
  8004201537:	48 29 d0             	sub    %rdx,%rax
	cprintf("Kernel executable memory footprint: %dKB\n",
  800420153a:	48 8d 90 ff 03 00 00 	lea    0x3ff(%rax),%rdx
  8004201541:	48 85 c0             	test   %rax,%rax
  8004201544:	48 0f 48 c2          	cmovs  %rdx,%rax
  8004201548:	48 c1 f8 0a          	sar    $0xa,%rax
  800420154c:	48 89 c6             	mov    %rax,%rsi
  800420154f:	48 bf 30 49 21 04 80 	movabs $0x8004214930,%rdi
  8004201556:	00 00 00 
  8004201559:	b8 00 00 00 00       	mov    $0x0,%eax
  800420155e:	48 ba 4a 95 20 04 80 	movabs $0x800420954a,%rdx
  8004201565:	00 00 00 
  8004201568:	ff d2                	callq  *%rdx
	return 0;
  800420156a:	b8 00 00 00 00       	mov    $0x0,%eax
}
  800420156f:	c9                   	leaveq 
  8004201570:	c3                   	retq   

0000008004201571 <mon_backtrace>:

int
mon_backtrace(int argc, char **argv, struct Trapframe *tf)
{
  8004201571:	55                   	push   %rbp
  8004201572:	48 89 e5             	mov    %rsp,%rbp
  8004201575:	48 81 ec 50 05 00 00 	sub    $0x550,%rsp
  800420157c:	89 bd cc fa ff ff    	mov    %edi,-0x534(%rbp)
  8004201582:	48 89 b5 c0 fa ff ff 	mov    %rsi,-0x540(%rbp)
  8004201589:	48 89 95 b8 fa ff ff 	mov    %rdx,-0x548(%rbp)
	__asm __volatile("movq %%rbp,%0" : "=r" (rbp)::"cc","memory");
  8004201590:	48 89 e8             	mov    %rbp,%rax
  8004201593:	48 89 45 b8          	mov    %rax,-0x48(%rbp)
	return rbp;
  8004201597:	48 8b 45 b8          	mov    -0x48(%rbp),%rax
	uint64_t rip;
	uint64_t rsp;
	uint64_t offset;
	struct Ripdebuginfo info;

	rbp = (const uint64_t*)read_rbp();
  800420159b:	48 89 45 f0          	mov    %rax,-0x10(%rbp)
	__asm __volatile("movq %%rsp,%0" : "=r" (esp));
  800420159f:	48 89 e0             	mov    %rsp,%rax
  80042015a2:	48 89 45 b0          	mov    %rax,-0x50(%rbp)
	return esp;
  80042015a6:	48 8b 45 b0          	mov    -0x50(%rbp),%rax
	rsp = read_rsp();
  80042015aa:	48 89 45 e0          	mov    %rax,-0x20(%rbp)

	if (tf) {
  80042015ae:	48 83 bd b8 fa ff ff 	cmpq   $0x0,-0x548(%rbp)
  80042015b5:	00 
  80042015b6:	74 21                	je     80042015d9 <mon_backtrace+0x68>
		rbp = (const uint64_t*)tf->tf_regs.reg_rbp;
  80042015b8:	48 8b 85 b8 fa ff ff 	mov    -0x548(%rbp),%rax
  80042015bf:	48 8b 40 50          	mov    0x50(%rax),%rax
  80042015c3:	48 89 45 f0          	mov    %rax,-0x10(%rbp)
		rsp = tf->tf_rsp;
  80042015c7:	48 8b 85 b8 fa ff ff 	mov    -0x548(%rbp),%rax
  80042015ce:	48 8b 80 b0 00 00 00 	mov    0xb0(%rax),%rax
  80042015d5:	48 89 45 e0          	mov    %rax,-0x20(%rbp)
	}

	read_rip(rip);
  80042015d9:	48 8d 05 00 00 00 00 	lea    0x0(%rip),%rax        # 80042015e0 <mon_backtrace+0x6f>
  80042015e0:	48 89 45 e8          	mov    %rax,-0x18(%rbp)

	cprintf("Stack backtrace:\n");
  80042015e4:	48 bf 5a 49 21 04 80 	movabs $0x800421495a,%rdi
  80042015eb:	00 00 00 
  80042015ee:	b8 00 00 00 00       	mov    $0x0,%eax
  80042015f3:	48 ba 4a 95 20 04 80 	movabs $0x800420954a,%rdx
  80042015fa:	00 00 00 
  80042015fd:	ff d2                	callq  *%rdx
	while (rbp) {
  80042015ff:	e9 1f 03 00 00       	jmpq   8004201923 <mon_backtrace+0x3b2>
		// print this stack frame
		cprintf("  rbp %016llx  rip %016llx\n", rbp, rip);
  8004201604:	48 8b 55 e8          	mov    -0x18(%rbp),%rdx
  8004201608:	48 8b 45 f0          	mov    -0x10(%rbp),%rax
  800420160c:	48 89 c6             	mov    %rax,%rsi
  800420160f:	48 bf 6c 49 21 04 80 	movabs $0x800421496c,%rdi
  8004201616:	00 00 00 
  8004201619:	b8 00 00 00 00       	mov    $0x0,%eax
  800420161e:	48 b9 4a 95 20 04 80 	movabs $0x800420954a,%rcx
  8004201625:	00 00 00 
  8004201628:	ff d1                	callq  *%rcx
		if (debuginfo_rip(rip, &info) >= 0){
  800420162a:	48 8d 95 d0 fa ff ff 	lea    -0x530(%rbp),%rdx
  8004201631:	48 8b 45 e8          	mov    -0x18(%rbp),%rax
  8004201635:	48 89 d6             	mov    %rdx,%rsi
  8004201638:	48 89 c7             	mov    %rax,%rdi
  800420163b:	48 b8 88 b1 20 04 80 	movabs $0x800420b188,%rax
  8004201642:	00 00 00 
  8004201645:	ff d0                	callq  *%rax
  8004201647:	85 c0                	test   %eax,%eax
  8004201649:	0f 88 a2 02 00 00    	js     80042018f1 <mon_backtrace+0x380>
			Dwarf_Regtable_Entry *cfa_rule = &info.reg_table.cfa_rule;
  800420164f:	48 8d 85 d0 fa ff ff 	lea    -0x530(%rbp),%rax
  8004201656:	48 05 a8 00 00 00    	add    $0xa8,%rax
  800420165c:	48 89 45 c8          	mov    %rax,-0x38(%rbp)
			uint64_t cfa;

			cprintf("       %s:%d: %.*s+%016llx", info.rip_file, info.rip_line,
				info.rip_fn_namelen, info.rip_fn_name, rip - info.rip_fn_addr);
  8004201660:	48 8b 85 f0 fa ff ff 	mov    -0x510(%rbp),%rax
			cprintf("       %s:%d: %.*s+%016llx", info.rip_file, info.rip_line,
  8004201667:	48 8b 55 e8          	mov    -0x18(%rbp),%rdx
  800420166b:	48 89 d7             	mov    %rdx,%rdi
  800420166e:	48 29 c7             	sub    %rax,%rdi
  8004201671:	48 8b b5 e0 fa ff ff 	mov    -0x520(%rbp),%rsi
  8004201678:	8b 8d e8 fa ff ff    	mov    -0x518(%rbp),%ecx
  800420167e:	8b 95 d8 fa ff ff    	mov    -0x528(%rbp),%edx
  8004201684:	48 8b 85 d0 fa ff ff 	mov    -0x530(%rbp),%rax
  800420168b:	49 89 f9             	mov    %rdi,%r9
  800420168e:	49 89 f0             	mov    %rsi,%r8
  8004201691:	48 89 c6             	mov    %rax,%rsi
  8004201694:	48 bf 88 49 21 04 80 	movabs $0x8004214988,%rdi
  800420169b:	00 00 00 
  800420169e:	b8 00 00 00 00       	mov    $0x0,%eax
  80042016a3:	49 ba 4a 95 20 04 80 	movabs $0x800420954a,%r10
  80042016aa:	00 00 00 
  80042016ad:	41 ff d2             	callq  *%r10

			if (cfa_rule->dw_regnum == 6) { /* 6: rbp */
  80042016b0:	48 8b 45 c8          	mov    -0x38(%rbp),%rax
  80042016b4:	0f b7 40 02          	movzwl 0x2(%rax),%eax
  80042016b8:	66 83 f8 06          	cmp    $0x6,%ax
  80042016bc:	75 15                	jne    80042016d3 <mon_backtrace+0x162>
				cfa = (uint64_t)rbp + cfa_rule->dw_offset;
  80042016be:	48 8b 45 c8          	mov    -0x38(%rbp),%rax
  80042016c2:	48 8b 50 08          	mov    0x8(%rax),%rdx
  80042016c6:	48 8b 45 f0          	mov    -0x10(%rbp),%rax
  80042016ca:	48 01 d0             	add    %rdx,%rax
  80042016cd:	48 89 45 d8          	mov    %rax,-0x28(%rbp)
  80042016d1:	eb 28                	jmp    80042016fb <mon_backtrace+0x18a>
			} else if (cfa_rule->dw_regnum == 7) { /* 7: rsp */
  80042016d3:	48 8b 45 c8          	mov    -0x38(%rbp),%rax
  80042016d7:	0f b7 40 02          	movzwl 0x2(%rax),%eax
  80042016db:	66 83 f8 07          	cmp    $0x7,%ax
  80042016df:	75 15                	jne    80042016f6 <mon_backtrace+0x185>
				cfa = rsp + cfa_rule->dw_offset;
  80042016e1:	48 8b 45 c8          	mov    -0x38(%rbp),%rax
  80042016e5:	48 8b 50 08          	mov    0x8(%rax),%rdx
  80042016e9:	48 8b 45 e0          	mov    -0x20(%rbp),%rax
  80042016ed:	48 01 d0             	add    %rdx,%rax
  80042016f0:	48 89 45 d8          	mov    %rax,-0x28(%rbp)
  80042016f4:	eb 05                	jmp    80042016fb <mon_backtrace+0x18a>
			} else {
				goto unknown_cfa;
  80042016f6:	e9 f6 01 00 00       	jmpq   80042018f1 <mon_backtrace+0x380>
			}

			cprintf("  args:%d ", info.rip_fn_narg);
  80042016fb:	8b 85 f8 fa ff ff    	mov    -0x508(%rbp),%eax
  8004201701:	89 c6                	mov    %eax,%esi
  8004201703:	48 bf a3 49 21 04 80 	movabs $0x80042149a3,%rdi
  800420170a:	00 00 00 
  800420170d:	b8 00 00 00 00       	mov    $0x0,%eax
  8004201712:	48 ba 4a 95 20 04 80 	movabs $0x800420954a,%rdx
  8004201719:	00 00 00 
  800420171c:	ff d2                	callq  *%rdx
			for (i = 0; i < info.rip_fn_narg ; i++)
  800420171e:	c7 45 fc 00 00 00 00 	movl   $0x0,-0x4(%rbp)
  8004201725:	e9 fa 00 00 00       	jmpq   8004201824 <mon_backtrace+0x2b3>
			{
				uint64_t val = 0;
  800420172a:	48 c7 45 d0 00 00 00 	movq   $0x0,-0x30(%rbp)
  8004201731:	00 
				assert(info.offset_fn_arg[i]);
  8004201732:	8b 45 fc             	mov    -0x4(%rbp),%eax
  8004201735:	48 98                	cltq   
  8004201737:	48 83 c0 0a          	add    $0xa,%rax
  800420173b:	48 8b 84 c5 d8 fa ff 	mov    -0x528(%rbp,%rax,8),%rax
  8004201742:	ff 
  8004201743:	48 85 c0             	test   %rax,%rax
  8004201746:	75 35                	jne    800420177d <mon_backtrace+0x20c>
  8004201748:	48 b9 ae 49 21 04 80 	movabs $0x80042149ae,%rcx
  800420174f:	00 00 00 
  8004201752:	48 ba c4 49 21 04 80 	movabs $0x80042149c4,%rdx
  8004201759:	00 00 00 
  800420175c:	be 6f 00 00 00       	mov    $0x6f,%esi
  8004201761:	48 bf d9 49 21 04 80 	movabs $0x80042149d9,%rdi
  8004201768:	00 00 00 
  800420176b:	b8 00 00 00 00       	mov    $0x0,%eax
  8004201770:	49 b8 a6 05 20 04 80 	movabs $0x80042005a6,%r8
  8004201777:	00 00 00 
  800420177a:	41 ff d0             	callq  *%r8
				offset = cfa + info.offset_fn_arg[i];
  800420177d:	8b 45 fc             	mov    -0x4(%rbp),%eax
  8004201780:	48 98                	cltq   
  8004201782:	48 83 c0 0a          	add    $0xa,%rax
  8004201786:	48 8b 94 c5 d8 fa ff 	mov    -0x528(%rbp,%rax,8),%rdx
  800420178d:	ff 
  800420178e:	48 8b 45 d8          	mov    -0x28(%rbp),%rax
  8004201792:	48 01 d0             	add    %rdx,%rax
  8004201795:	48 89 45 c0          	mov    %rax,-0x40(%rbp)
				switch(info.size_fn_arg[i]) {
  8004201799:	8b 45 fc             	mov    -0x4(%rbp),%eax
  800420179c:	48 98                	cltq   
  800420179e:	48 83 c0 08          	add    $0x8,%rax
  80042017a2:	8b 84 85 dc fa ff ff 	mov    -0x524(%rbp,%rax,4),%eax
  80042017a9:	83 f8 02             	cmp    $0x2,%eax
  80042017ac:	74 31                	je     80042017df <mon_backtrace+0x26e>
  80042017ae:	83 f8 02             	cmp    $0x2,%eax
  80042017b1:	7f 07                	jg     80042017ba <mon_backtrace+0x249>
  80042017b3:	83 f8 01             	cmp    $0x1,%eax
  80042017b6:	74 37                	je     80042017ef <mon_backtrace+0x27e>
  80042017b8:	eb 44                	jmp    80042017fe <mon_backtrace+0x28d>
  80042017ba:	83 f8 04             	cmp    $0x4,%eax
  80042017bd:	74 12                	je     80042017d1 <mon_backtrace+0x260>
  80042017bf:	83 f8 08             	cmp    $0x8,%eax
  80042017c2:	75 3a                	jne    80042017fe <mon_backtrace+0x28d>
					case 8:
						val = *(uint64_t *) offset;
  80042017c4:	48 8b 45 c0          	mov    -0x40(%rbp),%rax
  80042017c8:	48 8b 00             	mov    (%rax),%rax
  80042017cb:	48 89 45 d0          	mov    %rax,-0x30(%rbp)
						break;
  80042017cf:	eb 2d                	jmp    80042017fe <mon_backtrace+0x28d>
					case 4:
						val = *(uint32_t *) offset;
  80042017d1:	48 8b 45 c0          	mov    -0x40(%rbp),%rax
  80042017d5:	8b 00                	mov    (%rax),%eax
  80042017d7:	89 c0                	mov    %eax,%eax
  80042017d9:	48 89 45 d0          	mov    %rax,-0x30(%rbp)
						break;
  80042017dd:	eb 1f                	jmp    80042017fe <mon_backtrace+0x28d>
					case 2:
						val = *(uint16_t *) offset;
  80042017df:	48 8b 45 c0          	mov    -0x40(%rbp),%rax
  80042017e3:	0f b7 00             	movzwl (%rax),%eax
  80042017e6:	0f b7 c0             	movzwl %ax,%eax
  80042017e9:	48 89 45 d0          	mov    %rax,-0x30(%rbp)
						break;
  80042017ed:	eb 0f                	jmp    80042017fe <mon_backtrace+0x28d>
					case 1:
						val = *(uint8_t *) offset;
  80042017ef:	48 8b 45 c0          	mov    -0x40(%rbp),%rax
  80042017f3:	0f b6 00             	movzbl (%rax),%eax
  80042017f6:	0f b6 c0             	movzbl %al,%eax
  80042017f9:	48 89 45 d0          	mov    %rax,-0x30(%rbp)
						break;
  80042017fd:	90                   	nop
				}
				cprintf(" %016x", val);
  80042017fe:	48 8b 45 d0          	mov    -0x30(%rbp),%rax
  8004201802:	48 89 c6             	mov    %rax,%rsi
  8004201805:	48 bf e8 49 21 04 80 	movabs $0x80042149e8,%rdi
  800420180c:	00 00 00 
  800420180f:	b8 00 00 00 00       	mov    $0x0,%eax
  8004201814:	48 ba 4a 95 20 04 80 	movabs $0x800420954a,%rdx
  800420181b:	00 00 00 
  800420181e:	ff d2                	callq  *%rdx
			for (i = 0; i < info.rip_fn_narg ; i++)
  8004201820:	83 45 fc 01          	addl   $0x1,-0x4(%rbp)
  8004201824:	8b 85 f8 fa ff ff    	mov    -0x508(%rbp),%eax
  800420182a:	3b 45 fc             	cmp    -0x4(%rbp),%eax
  800420182d:	0f 8f f7 fe ff ff    	jg     800420172a <mon_backtrace+0x1b9>
			}

			switch(info.reg_table.rules[6].dw_regnum) { /* 6: rbp */
  8004201833:	0f b7 85 ea fb ff ff 	movzwl -0x416(%rbp),%eax
  800420183a:	0f b7 c0             	movzwl %ax,%eax
  800420183d:	3d 0b 04 00 00       	cmp    $0x40b,%eax
  8004201842:	74 48                	je     800420188c <mon_backtrace+0x31b>
  8004201844:	3d 9c 05 00 00       	cmp    $0x59c,%eax
  8004201849:	75 17                	jne    8004201862 <mon_backtrace+0x2f1>
				case DW_FRAME_SAME_VAL:
					break;
				case DW_FRAME_CFA_COL3:
					rbp = (const uint64_t *)*(uint64_t *)(cfa + info.reg_table.rules[6].dw_offset);
  800420184b:	48 8b 95 f0 fb ff ff 	mov    -0x410(%rbp),%rdx
  8004201852:	48 8b 45 d8          	mov    -0x28(%rbp),%rax
  8004201856:	48 01 d0             	add    %rdx,%rax
  8004201859:	48 8b 00             	mov    (%rax),%rax
  800420185c:	48 89 45 f0          	mov    %rax,-0x10(%rbp)
					break;
  8004201860:	eb 2b                	jmp    800420188d <mon_backtrace+0x31c>
				default:
					panic("unknown reg rule");
  8004201862:	48 ba ef 49 21 04 80 	movabs $0x80042149ef,%rdx
  8004201869:	00 00 00 
  800420186c:	be 89 00 00 00       	mov    $0x89,%esi
  8004201871:	48 bf d9 49 21 04 80 	movabs $0x80042149d9,%rdi
  8004201878:	00 00 00 
  800420187b:	b8 00 00 00 00       	mov    $0x0,%eax
  8004201880:	48 b9 a6 05 20 04 80 	movabs $0x80042005a6,%rcx
  8004201887:	00 00 00 
  800420188a:	ff d1                	callq  *%rcx
					break;
  800420188c:	90                   	nop
					break;
			}

			switch(info.reg_table.rules[16].dw_regnum) { /* 16: rip */
  800420188d:	0f b7 85 8a fc ff ff 	movzwl -0x376(%rbp),%eax
  8004201894:	0f b7 c0             	movzwl %ax,%eax
  8004201897:	3d 0b 04 00 00       	cmp    $0x40b,%eax
  800420189c:	74 48                	je     80042018e6 <mon_backtrace+0x375>
  800420189e:	3d 9c 05 00 00       	cmp    $0x59c,%eax
  80042018a3:	75 17                	jne    80042018bc <mon_backtrace+0x34b>
				case DW_FRAME_SAME_VAL:
					break;
				case DW_FRAME_CFA_COL3:
					rip = *(uint64_t *)(cfa + info.reg_table.rules[16].dw_offset);
  80042018a5:	48 8b 95 90 fc ff ff 	mov    -0x370(%rbp),%rdx
  80042018ac:	48 8b 45 d8          	mov    -0x28(%rbp),%rax
  80042018b0:	48 01 d0             	add    %rdx,%rax
  80042018b3:	48 8b 00             	mov    (%rax),%rax
  80042018b6:	48 89 45 e8          	mov    %rax,-0x18(%rbp)
					break;
  80042018ba:	eb 2b                	jmp    80042018e7 <mon_backtrace+0x376>
				default:
					panic("unknown reg rule");
  80042018bc:	48 ba ef 49 21 04 80 	movabs $0x80042149ef,%rdx
  80042018c3:	00 00 00 
  80042018c6:	be 94 00 00 00       	mov    $0x94,%esi
  80042018cb:	48 bf d9 49 21 04 80 	movabs $0x80042149d9,%rdi
  80042018d2:	00 00 00 
  80042018d5:	b8 00 00 00 00       	mov    $0x0,%eax
  80042018da:	48 b9 a6 05 20 04 80 	movabs $0x80042005a6,%rcx
  80042018e1:	00 00 00 
  80042018e4:	ff d1                	callq  *%rcx
					break;
  80042018e6:	90                   	nop
					break;
			}

			rsp = cfa;
  80042018e7:	48 8b 45 d8          	mov    -0x28(%rbp),%rax
  80042018eb:	48 89 45 e0          	mov    %rax,-0x20(%rbp)
  80042018ef:	eb 17                	jmp    8004201908 <mon_backtrace+0x397>
		} else {
unknown_cfa:
			// move to next lower stack frame
			rip = rbp[1];
  80042018f1:	48 8b 45 f0          	mov    -0x10(%rbp),%rax
  80042018f5:	48 8b 40 08          	mov    0x8(%rax),%rax
  80042018f9:	48 89 45 e8          	mov    %rax,-0x18(%rbp)
			rbp = (const uint64_t*) rbp[0];
  80042018fd:	48 8b 45 f0          	mov    -0x10(%rbp),%rax
  8004201901:	48 8b 00             	mov    (%rax),%rax
  8004201904:	48 89 45 f0          	mov    %rax,-0x10(%rbp)
		}
		cprintf("\n");
  8004201908:	48 bf 00 4a 21 04 80 	movabs $0x8004214a00,%rdi
  800420190f:	00 00 00 
  8004201912:	b8 00 00 00 00       	mov    $0x0,%eax
  8004201917:	48 ba 4a 95 20 04 80 	movabs $0x800420954a,%rdx
  800420191e:	00 00 00 
  8004201921:	ff d2                	callq  *%rdx
	while (rbp) {
  8004201923:	48 83 7d f0 00       	cmpq   $0x0,-0x10(%rbp)
  8004201928:	0f 85 d6 fc ff ff    	jne    8004201604 <mon_backtrace+0x93>
	}
  return 0;
  800420192e:	b8 00 00 00 00       	mov    $0x0,%eax
}
  8004201933:	c9                   	leaveq 
  8004201934:	c3                   	retq   

0000008004201935 <mon_exit>:

int
mon_exit(int argc, char** argv, struct Trapframe* tf)
{
  8004201935:	55                   	push   %rbp
  8004201936:	48 89 e5             	mov    %rsp,%rbp
  8004201939:	48 83 ec 18          	sub    $0x18,%rsp
  800420193d:	89 7d fc             	mov    %edi,-0x4(%rbp)
  8004201940:	48 89 75 f0          	mov    %rsi,-0x10(%rbp)
  8004201944:	48 89 55 e8          	mov    %rdx,-0x18(%rbp)
#ifdef VMM_GUEST
	asm("hlt");
  8004201948:	f4                   	hlt    
#endif
	return -1;
  8004201949:	b8 ff ff ff ff       	mov    $0xffffffff,%eax
}
  800420194e:	c9                   	leaveq 
  800420194f:	c3                   	retq   

0000008004201950 <runcmd>:
#define WHITESPACE "\t\r\n "
#define MAXARGS 16

static int
runcmd(char *buf, struct Trapframe *tf)
{
  8004201950:	55                   	push   %rbp
  8004201951:	48 89 e5             	mov    %rsp,%rbp
  8004201954:	48 81 ec a0 00 00 00 	sub    $0xa0,%rsp
  800420195b:	48 89 bd 68 ff ff ff 	mov    %rdi,-0x98(%rbp)
  8004201962:	48 89 b5 60 ff ff ff 	mov    %rsi,-0xa0(%rbp)
	int argc;
	char *argv[MAXARGS];
	int i;

	// Parse the command buffer into whitespace-separated arguments
	argc = 0;
  8004201969:	c7 45 fc 00 00 00 00 	movl   $0x0,-0x4(%rbp)
	argv[argc] = 0;
  8004201970:	8b 45 fc             	mov    -0x4(%rbp),%eax
  8004201973:	48 98                	cltq   
  8004201975:	48 c7 84 c5 70 ff ff 	movq   $0x0,-0x90(%rbp,%rax,8)
  800420197c:	ff 00 00 00 00 
	while (1) {
		// gobble whitespace
		while (*buf && strchr(WHITESPACE, *buf))
  8004201981:	eb 15                	jmp    8004201998 <runcmd+0x48>
			*buf++ = 0;
  8004201983:	48 8b 85 68 ff ff ff 	mov    -0x98(%rbp),%rax
  800420198a:	48 8d 50 01          	lea    0x1(%rax),%rdx
  800420198e:	48 89 95 68 ff ff ff 	mov    %rdx,-0x98(%rbp)
  8004201995:	c6 00 00             	movb   $0x0,(%rax)
		while (*buf && strchr(WHITESPACE, *buf))
  8004201998:	48 8b 85 68 ff ff ff 	mov    -0x98(%rbp),%rax
  800420199f:	0f b6 00             	movzbl (%rax),%eax
  80042019a2:	84 c0                	test   %al,%al
  80042019a4:	74 2a                	je     80042019d0 <runcmd+0x80>
  80042019a6:	48 8b 85 68 ff ff ff 	mov    -0x98(%rbp),%rax
  80042019ad:	0f b6 00             	movzbl (%rax),%eax
  80042019b0:	0f be c0             	movsbl %al,%eax
  80042019b3:	89 c6                	mov    %eax,%esi
  80042019b5:	48 bf 02 4a 21 04 80 	movabs $0x8004214a02,%rdi
  80042019bc:	00 00 00 
  80042019bf:	48 b8 75 c4 20 04 80 	movabs $0x800420c475,%rax
  80042019c6:	00 00 00 
  80042019c9:	ff d0                	callq  *%rax
  80042019cb:	48 85 c0             	test   %rax,%rax
  80042019ce:	75 b3                	jne    8004201983 <runcmd+0x33>
		if (*buf == 0)
  80042019d0:	48 8b 85 68 ff ff ff 	mov    -0x98(%rbp),%rax
  80042019d7:	0f b6 00             	movzbl (%rax),%eax
  80042019da:	84 c0                	test   %al,%al
  80042019dc:	75 21                	jne    80042019ff <runcmd+0xaf>
			break;
  80042019de:	90                   	nop
		}
		argv[argc++] = buf;
		while (*buf && !strchr(WHITESPACE, *buf))
			buf++;
	}
	argv[argc] = 0;
  80042019df:	8b 45 fc             	mov    -0x4(%rbp),%eax
  80042019e2:	48 98                	cltq   
  80042019e4:	48 c7 84 c5 70 ff ff 	movq   $0x0,-0x90(%rbp,%rax,8)
  80042019eb:	ff 00 00 00 00 

	// Lookup and invoke the command
	if (argc == 0)
  80042019f0:	83 7d fc 00          	cmpl   $0x0,-0x4(%rbp)
  80042019f4:	0f 85 a0 00 00 00    	jne    8004201a9a <runcmd+0x14a>
  80042019fa:	e9 91 00 00 00       	jmpq   8004201a90 <runcmd+0x140>
		if (argc == MAXARGS-1) {
  80042019ff:	83 7d fc 0f          	cmpl   $0xf,-0x4(%rbp)
  8004201a03:	75 2a                	jne    8004201a2f <runcmd+0xdf>
			cprintf("Too many arguments (max %d)\n", MAXARGS);
  8004201a05:	be 10 00 00 00       	mov    $0x10,%esi
  8004201a0a:	48 bf 07 4a 21 04 80 	movabs $0x8004214a07,%rdi
  8004201a11:	00 00 00 
  8004201a14:	b8 00 00 00 00       	mov    $0x0,%eax
  8004201a19:	48 ba 4a 95 20 04 80 	movabs $0x800420954a,%rdx
  8004201a20:	00 00 00 
  8004201a23:	ff d2                	callq  *%rdx
			return 0;
  8004201a25:	b8 00 00 00 00       	mov    $0x0,%eax
  8004201a2a:	e9 2f 01 00 00       	jmpq   8004201b5e <runcmd+0x20e>
		argv[argc++] = buf;
  8004201a2f:	8b 45 fc             	mov    -0x4(%rbp),%eax
  8004201a32:	8d 50 01             	lea    0x1(%rax),%edx
  8004201a35:	89 55 fc             	mov    %edx,-0x4(%rbp)
  8004201a38:	48 98                	cltq   
  8004201a3a:	48 8b 95 68 ff ff ff 	mov    -0x98(%rbp),%rdx
  8004201a41:	48 89 94 c5 70 ff ff 	mov    %rdx,-0x90(%rbp,%rax,8)
  8004201a48:	ff 
		while (*buf && !strchr(WHITESPACE, *buf))
  8004201a49:	eb 08                	jmp    8004201a53 <runcmd+0x103>
			buf++;
  8004201a4b:	48 83 85 68 ff ff ff 	addq   $0x1,-0x98(%rbp)
  8004201a52:	01 
		while (*buf && !strchr(WHITESPACE, *buf))
  8004201a53:	48 8b 85 68 ff ff ff 	mov    -0x98(%rbp),%rax
  8004201a5a:	0f b6 00             	movzbl (%rax),%eax
  8004201a5d:	84 c0                	test   %al,%al
  8004201a5f:	74 2a                	je     8004201a8b <runcmd+0x13b>
  8004201a61:	48 8b 85 68 ff ff ff 	mov    -0x98(%rbp),%rax
  8004201a68:	0f b6 00             	movzbl (%rax),%eax
  8004201a6b:	0f be c0             	movsbl %al,%eax
  8004201a6e:	89 c6                	mov    %eax,%esi
  8004201a70:	48 bf 02 4a 21 04 80 	movabs $0x8004214a02,%rdi
  8004201a77:	00 00 00 
  8004201a7a:	48 b8 75 c4 20 04 80 	movabs $0x800420c475,%rax
  8004201a81:	00 00 00 
  8004201a84:	ff d0                	callq  *%rax
  8004201a86:	48 85 c0             	test   %rax,%rax
  8004201a89:	74 c0                	je     8004201a4b <runcmd+0xfb>
	}
  8004201a8b:	e9 f1 fe ff ff       	jmpq   8004201981 <runcmd+0x31>
		return 0;
  8004201a90:	b8 00 00 00 00       	mov    $0x0,%eax
  8004201a95:	e9 c4 00 00 00       	jmpq   8004201b5e <runcmd+0x20e>
	for (i = 0; i < NCOMMANDS; i++) {
  8004201a9a:	c7 45 f8 00 00 00 00 	movl   $0x0,-0x8(%rbp)
  8004201aa1:	e9 82 00 00 00       	jmpq   8004201b28 <runcmd+0x1d8>
		if (strcmp(argv[0], commands[i].name) == 0)
  8004201aa6:	48 b9 c0 85 22 04 80 	movabs $0x80042285c0,%rcx
  8004201aad:	00 00 00 
  8004201ab0:	8b 45 f8             	mov    -0x8(%rbp),%eax
  8004201ab3:	48 63 d0             	movslq %eax,%rdx
  8004201ab6:	48 89 d0             	mov    %rdx,%rax
  8004201ab9:	48 01 c0             	add    %rax,%rax
  8004201abc:	48 01 d0             	add    %rdx,%rax
  8004201abf:	48 c1 e0 03          	shl    $0x3,%rax
  8004201ac3:	48 01 c8             	add    %rcx,%rax
  8004201ac6:	48 8b 10             	mov    (%rax),%rdx
  8004201ac9:	48 8b 85 70 ff ff ff 	mov    -0x90(%rbp),%rax
  8004201ad0:	48 89 d6             	mov    %rdx,%rsi
  8004201ad3:	48 89 c7             	mov    %rax,%rdi
  8004201ad6:	48 b8 b1 c3 20 04 80 	movabs $0x800420c3b1,%rax
  8004201add:	00 00 00 
  8004201ae0:	ff d0                	callq  *%rax
  8004201ae2:	85 c0                	test   %eax,%eax
  8004201ae4:	75 3e                	jne    8004201b24 <runcmd+0x1d4>
			return commands[i].func(argc, argv, tf);
  8004201ae6:	48 b9 c0 85 22 04 80 	movabs $0x80042285c0,%rcx
  8004201aed:	00 00 00 
  8004201af0:	8b 45 f8             	mov    -0x8(%rbp),%eax
  8004201af3:	48 63 d0             	movslq %eax,%rdx
  8004201af6:	48 89 d0             	mov    %rdx,%rax
  8004201af9:	48 01 c0             	add    %rax,%rax
  8004201afc:	48 01 d0             	add    %rdx,%rax
  8004201aff:	48 c1 e0 03          	shl    $0x3,%rax
  8004201b03:	48 01 c8             	add    %rcx,%rax
  8004201b06:	48 83 c0 10          	add    $0x10,%rax
  8004201b0a:	48 8b 00             	mov    (%rax),%rax
  8004201b0d:	48 8b 95 60 ff ff ff 	mov    -0xa0(%rbp),%rdx
  8004201b14:	48 8d b5 70 ff ff ff 	lea    -0x90(%rbp),%rsi
  8004201b1b:	8b 4d fc             	mov    -0x4(%rbp),%ecx
  8004201b1e:	89 cf                	mov    %ecx,%edi
  8004201b20:	ff d0                	callq  *%rax
  8004201b22:	eb 3a                	jmp    8004201b5e <runcmd+0x20e>
	for (i = 0; i < NCOMMANDS; i++) {
  8004201b24:	83 45 f8 01          	addl   $0x1,-0x8(%rbp)
  8004201b28:	8b 45 f8             	mov    -0x8(%rbp),%eax
  8004201b2b:	83 f8 03             	cmp    $0x3,%eax
  8004201b2e:	0f 86 72 ff ff ff    	jbe    8004201aa6 <runcmd+0x156>
	}
	cprintf("Unknown command '%s'\n", argv[0]);
  8004201b34:	48 8b 85 70 ff ff ff 	mov    -0x90(%rbp),%rax
  8004201b3b:	48 89 c6             	mov    %rax,%rsi
  8004201b3e:	48 bf 24 4a 21 04 80 	movabs $0x8004214a24,%rdi
  8004201b45:	00 00 00 
  8004201b48:	b8 00 00 00 00       	mov    $0x0,%eax
  8004201b4d:	48 ba 4a 95 20 04 80 	movabs $0x800420954a,%rdx
  8004201b54:	00 00 00 
  8004201b57:	ff d2                	callq  *%rdx
	return 0;
  8004201b59:	b8 00 00 00 00       	mov    $0x0,%eax
}
  8004201b5e:	c9                   	leaveq 
  8004201b5f:	c3                   	retq   

0000008004201b60 <monitor>:

void
monitor(struct Trapframe *tf)
{
  8004201b60:	55                   	push   %rbp
  8004201b61:	48 89 e5             	mov    %rsp,%rbp
  8004201b64:	48 83 ec 20          	sub    $0x20,%rsp
  8004201b68:	48 89 7d e8          	mov    %rdi,-0x18(%rbp)
	char *buf;

	cprintf("Welcome to the JOS kernel monitor!\n");
  8004201b6c:	48 bf 40 4a 21 04 80 	movabs $0x8004214a40,%rdi
  8004201b73:	00 00 00 
  8004201b76:	b8 00 00 00 00       	mov    $0x0,%eax
  8004201b7b:	48 ba 4a 95 20 04 80 	movabs $0x800420954a,%rdx
  8004201b82:	00 00 00 
  8004201b85:	ff d2                	callq  *%rdx
	cprintf("Type 'help' for a list of commands.\n");
  8004201b87:	48 bf 68 4a 21 04 80 	movabs $0x8004214a68,%rdi
  8004201b8e:	00 00 00 
  8004201b91:	b8 00 00 00 00       	mov    $0x0,%eax
  8004201b96:	48 ba 4a 95 20 04 80 	movabs $0x800420954a,%rdx
  8004201b9d:	00 00 00 
  8004201ba0:	ff d2                	callq  *%rdx

	if (tf != NULL)
  8004201ba2:	48 83 7d e8 00       	cmpq   $0x0,-0x18(%rbp)
  8004201ba7:	74 13                	je     8004201bbc <monitor+0x5c>
		print_trapframe(tf);
  8004201ba9:	48 8b 45 e8          	mov    -0x18(%rbp),%rax
  8004201bad:	48 89 c7             	mov    %rax,%rdi
  8004201bb0:	48 b8 42 99 20 04 80 	movabs $0x8004209942,%rax
  8004201bb7:	00 00 00 
  8004201bba:	ff d0                	callq  *%rax

	while (1) {
		buf = readline("K> ");
  8004201bbc:	48 bf 8d 4a 21 04 80 	movabs $0x8004214a8d,%rdi
  8004201bc3:	00 00 00 
  8004201bc6:	48 b8 8e c0 20 04 80 	movabs $0x800420c08e,%rax
  8004201bcd:	00 00 00 
  8004201bd0:	ff d0                	callq  *%rax
  8004201bd2:	48 89 45 f8          	mov    %rax,-0x8(%rbp)
		if (buf != NULL)
  8004201bd6:	48 83 7d f8 00       	cmpq   $0x0,-0x8(%rbp)
  8004201bdb:	74 20                	je     8004201bfd <monitor+0x9d>
			if (runcmd(buf, tf) < 0)
  8004201bdd:	48 8b 55 e8          	mov    -0x18(%rbp),%rdx
  8004201be1:	48 8b 45 f8          	mov    -0x8(%rbp),%rax
  8004201be5:	48 89 d6             	mov    %rdx,%rsi
  8004201be8:	48 89 c7             	mov    %rax,%rdi
  8004201beb:	48 b8 50 19 20 04 80 	movabs $0x8004201950,%rax
  8004201bf2:	00 00 00 
  8004201bf5:	ff d0                	callq  *%rax
  8004201bf7:	85 c0                	test   %eax,%eax
  8004201bf9:	79 02                	jns    8004201bfd <monitor+0x9d>
				break;
  8004201bfb:	eb 02                	jmp    8004201bff <monitor+0x9f>
	}
  8004201bfd:	eb bd                	jmp    8004201bbc <monitor+0x5c>
}
  8004201bff:	c9                   	leaveq 
  8004201c00:	c3                   	retq   

0000008004201c01 <page2ppn>:
int	user_mem_check(struct Env *env, const void *va, size_t len, int perm);
void	user_mem_assert(struct Env *env, const void *va, size_t len, int perm);

static inline ppn_t
page2ppn(struct PageInfo *pp)
{
  8004201c01:	55                   	push   %rbp
  8004201c02:	48 89 e5             	mov    %rsp,%rbp
  8004201c05:	48 83 ec 08          	sub    $0x8,%rsp
  8004201c09:	48 89 7d f8          	mov    %rdi,-0x8(%rbp)
	return pp - pages;
  8004201c0d:	48 8b 55 f8          	mov    -0x8(%rbp),%rdx
  8004201c11:	48 b8 d8 c7 57 04 80 	movabs $0x800457c7d8,%rax
  8004201c18:	00 00 00 
  8004201c1b:	48 8b 00             	mov    (%rax),%rax
  8004201c1e:	48 29 c2             	sub    %rax,%rdx
  8004201c21:	48 89 d0             	mov    %rdx,%rax
  8004201c24:	48 c1 f8 04          	sar    $0x4,%rax
}
  8004201c28:	c9                   	leaveq 
  8004201c29:	c3                   	retq   

0000008004201c2a <page2pa>:

static inline physaddr_t
page2pa(struct PageInfo *pp)
{
  8004201c2a:	55                   	push   %rbp
  8004201c2b:	48 89 e5             	mov    %rsp,%rbp
  8004201c2e:	48 83 ec 08          	sub    $0x8,%rsp
  8004201c32:	48 89 7d f8          	mov    %rdi,-0x8(%rbp)
	return page2ppn(pp) << PGSHIFT;
  8004201c36:	48 8b 45 f8          	mov    -0x8(%rbp),%rax
  8004201c3a:	48 89 c7             	mov    %rax,%rdi
  8004201c3d:	48 b8 01 1c 20 04 80 	movabs $0x8004201c01,%rax
  8004201c44:	00 00 00 
  8004201c47:	ff d0                	callq  *%rax
  8004201c49:	48 c1 e0 0c          	shl    $0xc,%rax
}
  8004201c4d:	c9                   	leaveq 
  8004201c4e:	c3                   	retq   

0000008004201c4f <pa2page>:

static inline struct PageInfo*
pa2page(physaddr_t pa)
{
  8004201c4f:	55                   	push   %rbp
  8004201c50:	48 89 e5             	mov    %rsp,%rbp
  8004201c53:	48 83 ec 10          	sub    $0x10,%rsp
  8004201c57:	48 89 7d f8          	mov    %rdi,-0x8(%rbp)
	if (PPN(pa) >= npages)
  8004201c5b:	48 8b 45 f8          	mov    -0x8(%rbp),%rax
  8004201c5f:	48 c1 e8 0c          	shr    $0xc,%rax
  8004201c63:	48 89 c2             	mov    %rax,%rdx
  8004201c66:	48 b8 d0 c7 57 04 80 	movabs $0x800457c7d0,%rax
  8004201c6d:	00 00 00 
  8004201c70:	48 8b 00             	mov    (%rax),%rax
  8004201c73:	48 39 c2             	cmp    %rax,%rdx
  8004201c76:	72 2a                	jb     8004201ca2 <pa2page+0x53>
		panic("pa2page called with invalid pa");
  8004201c78:	48 ba 98 4a 21 04 80 	movabs $0x8004214a98,%rdx
  8004201c7f:	00 00 00 
  8004201c82:	be 54 00 00 00       	mov    $0x54,%esi
  8004201c87:	48 bf b7 4a 21 04 80 	movabs $0x8004214ab7,%rdi
  8004201c8e:	00 00 00 
  8004201c91:	b8 00 00 00 00       	mov    $0x0,%eax
  8004201c96:	48 b9 a6 05 20 04 80 	movabs $0x80042005a6,%rcx
  8004201c9d:	00 00 00 
  8004201ca0:	ff d1                	callq  *%rcx
	return &pages[PPN(pa)];
  8004201ca2:	48 b8 d8 c7 57 04 80 	movabs $0x800457c7d8,%rax
  8004201ca9:	00 00 00 
  8004201cac:	48 8b 00             	mov    (%rax),%rax
  8004201caf:	48 8b 55 f8          	mov    -0x8(%rbp),%rdx
  8004201cb3:	48 c1 ea 0c          	shr    $0xc,%rdx
  8004201cb7:	48 c1 e2 04          	shl    $0x4,%rdx
  8004201cbb:	48 01 d0             	add    %rdx,%rax
}
  8004201cbe:	c9                   	leaveq 
  8004201cbf:	c3                   	retq   

0000008004201cc0 <page2kva>:

static inline void*
page2kva(struct PageInfo *pp)
{
  8004201cc0:	55                   	push   %rbp
  8004201cc1:	48 89 e5             	mov    %rsp,%rbp
  8004201cc4:	48 83 ec 20          	sub    $0x20,%rsp
  8004201cc8:	48 89 7d e8          	mov    %rdi,-0x18(%rbp)
	return KADDR(page2pa(pp));
  8004201ccc:	48 8b 45 e8          	mov    -0x18(%rbp),%rax
  8004201cd0:	48 89 c7             	mov    %rax,%rdi
  8004201cd3:	48 b8 2a 1c 20 04 80 	movabs $0x8004201c2a,%rax
  8004201cda:	00 00 00 
  8004201cdd:	ff d0                	callq  *%rax
  8004201cdf:	48 89 45 f8          	mov    %rax,-0x8(%rbp)
  8004201ce3:	48 8b 45 f8          	mov    -0x8(%rbp),%rax
  8004201ce7:	48 c1 e8 0c          	shr    $0xc,%rax
  8004201ceb:	89 45 f4             	mov    %eax,-0xc(%rbp)
  8004201cee:	8b 55 f4             	mov    -0xc(%rbp),%edx
  8004201cf1:	48 b8 d0 c7 57 04 80 	movabs $0x800457c7d0,%rax
  8004201cf8:	00 00 00 
  8004201cfb:	48 8b 00             	mov    (%rax),%rax
  8004201cfe:	48 39 c2             	cmp    %rax,%rdx
  8004201d01:	72 32                	jb     8004201d35 <page2kva+0x75>
  8004201d03:	48 8b 45 f8          	mov    -0x8(%rbp),%rax
  8004201d07:	48 89 c1             	mov    %rax,%rcx
  8004201d0a:	48 ba c8 4a 21 04 80 	movabs $0x8004214ac8,%rdx
  8004201d11:	00 00 00 
  8004201d14:	be 5b 00 00 00       	mov    $0x5b,%esi
  8004201d19:	48 bf b7 4a 21 04 80 	movabs $0x8004214ab7,%rdi
  8004201d20:	00 00 00 
  8004201d23:	b8 00 00 00 00       	mov    $0x0,%eax
  8004201d28:	49 b8 a6 05 20 04 80 	movabs $0x80042005a6,%r8
  8004201d2f:	00 00 00 
  8004201d32:	41 ff d0             	callq  *%r8
  8004201d35:	48 ba 00 00 00 04 80 	movabs $0x8004000000,%rdx
  8004201d3c:	00 00 00 
  8004201d3f:	48 8b 45 f8          	mov    -0x8(%rbp),%rax
  8004201d43:	48 01 d0             	add    %rdx,%rax
}
  8004201d46:	c9                   	leaveq 
  8004201d47:	c3                   	retq   

0000008004201d48 <restrictive_type>:
   uint32_t length_low;
   uint32_t length_high;
   uint32_t type;
 } memory_map_t;

static __inline uint32_t restrictive_type(uint32_t t1, uint32_t t2) {
  8004201d48:	55                   	push   %rbp
  8004201d49:	48 89 e5             	mov    %rsp,%rbp
  8004201d4c:	48 83 ec 08          	sub    $0x8,%rsp
  8004201d50:	89 7d fc             	mov    %edi,-0x4(%rbp)
  8004201d53:	89 75 f8             	mov    %esi,-0x8(%rbp)
  if(t1==MB_TYPE_BAD || t2==MB_TYPE_BAD)
  8004201d56:	83 7d fc 05          	cmpl   $0x5,-0x4(%rbp)
  8004201d5a:	74 06                	je     8004201d62 <restrictive_type+0x1a>
  8004201d5c:	83 7d f8 05          	cmpl   $0x5,-0x8(%rbp)
  8004201d60:	75 07                	jne    8004201d69 <restrictive_type+0x21>
    return MB_TYPE_BAD;
  8004201d62:	b8 05 00 00 00       	mov    $0x5,%eax
  8004201d67:	eb 3e                	jmp    8004201da7 <restrictive_type+0x5f>
  else if(t1==MB_TYPE_ACPI_NVS || t2==MB_TYPE_ACPI_NVS)
  8004201d69:	83 7d fc 04          	cmpl   $0x4,-0x4(%rbp)
  8004201d6d:	74 06                	je     8004201d75 <restrictive_type+0x2d>
  8004201d6f:	83 7d f8 04          	cmpl   $0x4,-0x8(%rbp)
  8004201d73:	75 07                	jne    8004201d7c <restrictive_type+0x34>
    return MB_TYPE_ACPI_NVS;
  8004201d75:	b8 04 00 00 00       	mov    $0x4,%eax
  8004201d7a:	eb 2b                	jmp    8004201da7 <restrictive_type+0x5f>
  else if(t1==MB_TYPE_RESERVED || t2==MB_TYPE_RESERVED)
  8004201d7c:	83 7d fc 02          	cmpl   $0x2,-0x4(%rbp)
  8004201d80:	74 06                	je     8004201d88 <restrictive_type+0x40>
  8004201d82:	83 7d f8 02          	cmpl   $0x2,-0x8(%rbp)
  8004201d86:	75 07                	jne    8004201d8f <restrictive_type+0x47>
    return MB_TYPE_RESERVED;
  8004201d88:	b8 02 00 00 00       	mov    $0x2,%eax
  8004201d8d:	eb 18                	jmp    8004201da7 <restrictive_type+0x5f>
  else if(t1==MB_TYPE_ACPI_RECLM || t2==MB_TYPE_ACPI_RECLM)
  8004201d8f:	83 7d fc 03          	cmpl   $0x3,-0x4(%rbp)
  8004201d93:	74 06                	je     8004201d9b <restrictive_type+0x53>
  8004201d95:	83 7d f8 03          	cmpl   $0x3,-0x8(%rbp)
  8004201d99:	75 07                	jne    8004201da2 <restrictive_type+0x5a>
    return MB_TYPE_ACPI_RECLM;
  8004201d9b:	b8 03 00 00 00       	mov    $0x3,%eax
  8004201da0:	eb 05                	jmp    8004201da7 <restrictive_type+0x5f>

  return MB_TYPE_USABLE;
  8004201da2:	b8 01 00 00 00       	mov    $0x1,%eax
}
  8004201da7:	c9                   	leaveq 
  8004201da8:	c3                   	retq   

0000008004201da9 <nvram_read>:
// Detect machine's physical memory setup.
// --------------------------------------------------------------

static int
nvram_read(int r)
{
  8004201da9:	55                   	push   %rbp
  8004201daa:	48 89 e5             	mov    %rsp,%rbp
  8004201dad:	53                   	push   %rbx
  8004201dae:	48 83 ec 18          	sub    $0x18,%rsp
  8004201db2:	89 7d ec             	mov    %edi,-0x14(%rbp)
	return mc146818_read(r) | (mc146818_read(r + 1) << 8);
  8004201db5:	8b 45 ec             	mov    -0x14(%rbp),%eax
  8004201db8:	89 c7                	mov    %eax,%edi
  8004201dba:	48 b8 ce 91 20 04 80 	movabs $0x80042091ce,%rax
  8004201dc1:	00 00 00 
  8004201dc4:	ff d0                	callq  *%rax
  8004201dc6:	89 c3                	mov    %eax,%ebx
  8004201dc8:	8b 45 ec             	mov    -0x14(%rbp),%eax
  8004201dcb:	83 c0 01             	add    $0x1,%eax
  8004201dce:	89 c7                	mov    %eax,%edi
  8004201dd0:	48 b8 ce 91 20 04 80 	movabs $0x80042091ce,%rax
  8004201dd7:	00 00 00 
  8004201dda:	ff d0                	callq  *%rax
  8004201ddc:	c1 e0 08             	shl    $0x8,%eax
  8004201ddf:	09 d8                	or     %ebx,%eax
}
  8004201de1:	48 83 c4 18          	add    $0x18,%rsp
  8004201de5:	5b                   	pop    %rbx
  8004201de6:	5d                   	pop    %rbp
  8004201de7:	c3                   	retq   

0000008004201de8 <multiboot_read>:

static void
multiboot_read(multiboot_info_t* mbinfo, size_t* basemem, size_t* extmem) {
  8004201de8:	55                   	push   %rbp
  8004201de9:	48 89 e5             	mov    %rsp,%rbp
  8004201dec:	53                   	push   %rbx
  8004201ded:	48 81 ec b8 00 00 00 	sub    $0xb8,%rsp
  8004201df4:	48 89 bd 58 ff ff ff 	mov    %rdi,-0xa8(%rbp)
  8004201dfb:	48 89 b5 50 ff ff ff 	mov    %rsi,-0xb0(%rbp)
  8004201e02:	48 89 95 48 ff ff ff 	mov    %rdx,-0xb8(%rbp)
  8004201e09:	48 89 e0             	mov    %rsp,%rax
  8004201e0c:	48 89 c3             	mov    %rax,%rbx
	int i;

	memory_map_t* mmap_base = (memory_map_t*)(uintptr_t)mbinfo->mmap_addr;
  8004201e0f:	48 8b 85 58 ff ff ff 	mov    -0xa8(%rbp),%rax
  8004201e16:	8b 40 30             	mov    0x30(%rax),%eax
  8004201e19:	89 c0                	mov    %eax,%eax
  8004201e1b:	48 89 45 d8          	mov    %rax,-0x28(%rbp)
 	memory_map_t* mmap_list[mbinfo->mmap_length/ (sizeof(memory_map_t))];
  8004201e1f:	48 8b 85 58 ff ff ff 	mov    -0xa8(%rbp),%rax
  8004201e26:	8b 40 2c             	mov    0x2c(%rax),%eax
  8004201e29:	ba ab aa aa aa       	mov    $0xaaaaaaab,%edx
  8004201e2e:	f7 e2                	mul    %edx
  8004201e30:	89 d0                	mov    %edx,%eax
  8004201e32:	c1 e8 04             	shr    $0x4,%eax
  8004201e35:	89 c0                	mov    %eax,%eax
  8004201e37:	48 89 c2             	mov    %rax,%rdx
  8004201e3a:	48 83 ea 01          	sub    $0x1,%rdx
  8004201e3e:	48 89 55 d0          	mov    %rdx,-0x30(%rbp)
  8004201e42:	49 89 c2             	mov    %rax,%r10
  8004201e45:	41 bb 00 00 00 00    	mov    $0x0,%r11d
  8004201e4b:	49 89 c0             	mov    %rax,%r8
  8004201e4e:	41 b9 00 00 00 00    	mov    $0x0,%r9d
  8004201e54:	48 c1 e0 03          	shl    $0x3,%rax
  8004201e58:	48 8d 50 07          	lea    0x7(%rax),%rdx
  8004201e5c:	b8 10 00 00 00       	mov    $0x10,%eax
  8004201e61:	48 83 e8 01          	sub    $0x1,%rax
  8004201e65:	48 01 d0             	add    %rdx,%rax
  8004201e68:	be 10 00 00 00       	mov    $0x10,%esi
  8004201e6d:	ba 00 00 00 00       	mov    $0x0,%edx
  8004201e72:	48 f7 f6             	div    %rsi
  8004201e75:	48 6b c0 10          	imul   $0x10,%rax,%rax
  8004201e79:	48 29 c4             	sub    %rax,%rsp
  8004201e7c:	48 89 e0             	mov    %rsp,%rax
  8004201e7f:	48 83 c0 07          	add    $0x7,%rax
  8004201e83:	48 c1 e8 03          	shr    $0x3,%rax
  8004201e87:	48 c1 e0 03          	shl    $0x3,%rax
  8004201e8b:	48 89 45 c8          	mov    %rax,-0x38(%rbp)

	cprintf("\ne820 MEMORY MAP\n");
  8004201e8f:	48 bf eb 4a 21 04 80 	movabs $0x8004214aeb,%rdi
  8004201e96:	00 00 00 
  8004201e99:	b8 00 00 00 00       	mov    $0x0,%eax
  8004201e9e:	48 ba 4a 95 20 04 80 	movabs $0x800420954a,%rdx
  8004201ea5:	00 00 00 
  8004201ea8:	ff d2                	callq  *%rdx
	for(i = 0; i < (mbinfo->mmap_length / (sizeof(memory_map_t))); i++) {
  8004201eaa:	c7 45 ec 00 00 00 00 	movl   $0x0,-0x14(%rbp)
  8004201eb1:	e9 6c 01 00 00       	jmpq   8004202022 <multiboot_read+0x23a>
		memory_map_t* mmap = &mmap_base[i];
  8004201eb6:	8b 45 ec             	mov    -0x14(%rbp),%eax
  8004201eb9:	48 63 d0             	movslq %eax,%rdx
  8004201ebc:	48 89 d0             	mov    %rdx,%rax
  8004201ebf:	48 01 c0             	add    %rax,%rax
  8004201ec2:	48 01 d0             	add    %rdx,%rax
  8004201ec5:	48 c1 e0 03          	shl    $0x3,%rax
  8004201ec9:	48 89 c2             	mov    %rax,%rdx
  8004201ecc:	48 8b 45 d8          	mov    -0x28(%rbp),%rax
  8004201ed0:	48 01 d0             	add    %rdx,%rax
  8004201ed3:	48 89 45 c0          	mov    %rax,-0x40(%rbp)

		uint64_t addr = APPEND_HILO(mmap->base_addr_high, mmap->base_addr_low);
  8004201ed7:	48 8b 45 c0          	mov    -0x40(%rbp),%rax
  8004201edb:	8b 40 08             	mov    0x8(%rax),%eax
  8004201ede:	89 c0                	mov    %eax,%eax
  8004201ee0:	48 c1 e0 20          	shl    $0x20,%rax
  8004201ee4:	48 89 c2             	mov    %rax,%rdx
  8004201ee7:	48 8b 45 c0          	mov    -0x40(%rbp),%rax
  8004201eeb:	8b 40 04             	mov    0x4(%rax),%eax
  8004201eee:	89 c0                	mov    %eax,%eax
  8004201ef0:	48 01 d0             	add    %rdx,%rax
  8004201ef3:	48 89 45 b8          	mov    %rax,-0x48(%rbp)
		uint64_t len = APPEND_HILO(mmap->length_high, mmap->length_low);
  8004201ef7:	48 8b 45 c0          	mov    -0x40(%rbp),%rax
  8004201efb:	8b 40 10             	mov    0x10(%rax),%eax
  8004201efe:	89 c0                	mov    %eax,%eax
  8004201f00:	48 c1 e0 20          	shl    $0x20,%rax
  8004201f04:	48 89 c2             	mov    %rax,%rdx
  8004201f07:	48 8b 45 c0          	mov    -0x40(%rbp),%rax
  8004201f0b:	8b 40 0c             	mov    0xc(%rax),%eax
  8004201f0e:	89 c0                	mov    %eax,%eax
  8004201f10:	48 01 d0             	add    %rdx,%rax
  8004201f13:	48 89 45 b0          	mov    %rax,-0x50(%rbp)

		cprintf("size: %d, address: 0x%016x, length: 0x%016x, type: %x\n", mmap->size,
  8004201f17:	48 8b 45 c0          	mov    -0x40(%rbp),%rax
  8004201f1b:	8b 70 14             	mov    0x14(%rax),%esi
  8004201f1e:	48 8b 45 c0          	mov    -0x40(%rbp),%rax
  8004201f22:	8b 00                	mov    (%rax),%eax
  8004201f24:	48 8b 4d b0          	mov    -0x50(%rbp),%rcx
  8004201f28:	48 8b 55 b8          	mov    -0x48(%rbp),%rdx
  8004201f2c:	41 89 f0             	mov    %esi,%r8d
  8004201f2f:	89 c6                	mov    %eax,%esi
  8004201f31:	48 bf 00 4b 21 04 80 	movabs $0x8004214b00,%rdi
  8004201f38:	00 00 00 
  8004201f3b:	b8 00 00 00 00       	mov    $0x0,%eax
  8004201f40:	49 b9 4a 95 20 04 80 	movabs $0x800420954a,%r9
  8004201f47:	00 00 00 
  8004201f4a:	41 ff d1             	callq  *%r9
			addr, len, mmap->type);

		if(mmap->type > 5 || mmap->type < 1)
  8004201f4d:	48 8b 45 c0          	mov    -0x40(%rbp),%rax
  8004201f51:	8b 40 14             	mov    0x14(%rax),%eax
  8004201f54:	83 f8 05             	cmp    $0x5,%eax
  8004201f57:	77 0b                	ja     8004201f64 <multiboot_read+0x17c>
  8004201f59:	48 8b 45 c0          	mov    -0x40(%rbp),%rax
  8004201f5d:	8b 40 14             	mov    0x14(%rax),%eax
  8004201f60:	85 c0                	test   %eax,%eax
  8004201f62:	75 0b                	jne    8004201f6f <multiboot_read+0x187>
			mmap->type = MB_TYPE_RESERVED;
  8004201f64:	48 8b 45 c0          	mov    -0x40(%rbp),%rax
  8004201f68:	c7 40 14 02 00 00 00 	movl   $0x2,0x14(%rax)

		//Insert into the sorted list
		int j = 0;
  8004201f6f:	c7 45 e8 00 00 00 00 	movl   $0x0,-0x18(%rbp)
		for(;j<i;j++) {
  8004201f76:	e9 85 00 00 00       	jmpq   8004202000 <multiboot_read+0x218>
			memory_map_t* this = mmap_list[j];
  8004201f7b:	48 8b 45 c8          	mov    -0x38(%rbp),%rax
  8004201f7f:	8b 55 e8             	mov    -0x18(%rbp),%edx
  8004201f82:	48 63 d2             	movslq %edx,%rdx
  8004201f85:	48 8b 04 d0          	mov    (%rax,%rdx,8),%rax
  8004201f89:	48 89 45 a8          	mov    %rax,-0x58(%rbp)
			uint64_t this_addr = APPEND_HILO(this->base_addr_high, this->base_addr_low);
  8004201f8d:	48 8b 45 a8          	mov    -0x58(%rbp),%rax
  8004201f91:	8b 40 08             	mov    0x8(%rax),%eax
  8004201f94:	89 c0                	mov    %eax,%eax
  8004201f96:	48 c1 e0 20          	shl    $0x20,%rax
  8004201f9a:	48 89 c2             	mov    %rax,%rdx
  8004201f9d:	48 8b 45 a8          	mov    -0x58(%rbp),%rax
  8004201fa1:	8b 40 04             	mov    0x4(%rax),%eax
  8004201fa4:	89 c0                	mov    %eax,%eax
  8004201fa6:	48 01 d0             	add    %rdx,%rax
  8004201fa9:	48 89 45 a0          	mov    %rax,-0x60(%rbp)
			if(this_addr > addr) {
  8004201fad:	48 8b 45 a0          	mov    -0x60(%rbp),%rax
  8004201fb1:	48 3b 45 b8          	cmp    -0x48(%rbp),%rax
  8004201fb5:	76 45                	jbe    8004201ffc <multiboot_read+0x214>
				int last = i+1;
  8004201fb7:	8b 45 ec             	mov    -0x14(%rbp),%eax
  8004201fba:	83 c0 01             	add    $0x1,%eax
  8004201fbd:	89 45 e4             	mov    %eax,-0x1c(%rbp)
				while(last != j) {
  8004201fc0:	eb 30                	jmp    8004201ff2 <multiboot_read+0x20a>
					*(mmap_list + last) = *(mmap_list + last - 1);
  8004201fc2:	48 8b 45 c8          	mov    -0x38(%rbp),%rax
  8004201fc6:	8b 55 e4             	mov    -0x1c(%rbp),%edx
  8004201fc9:	48 63 d2             	movslq %edx,%rdx
  8004201fcc:	48 c1 e2 03          	shl    $0x3,%rdx
  8004201fd0:	48 01 c2             	add    %rax,%rdx
  8004201fd3:	48 8b 45 c8          	mov    -0x38(%rbp),%rax
  8004201fd7:	8b 4d e4             	mov    -0x1c(%rbp),%ecx
  8004201fda:	48 63 c9             	movslq %ecx,%rcx
  8004201fdd:	48 c1 e1 03          	shl    $0x3,%rcx
  8004201fe1:	48 83 e9 08          	sub    $0x8,%rcx
  8004201fe5:	48 01 c8             	add    %rcx,%rax
  8004201fe8:	48 8b 00             	mov    (%rax),%rax
  8004201feb:	48 89 02             	mov    %rax,(%rdx)
					last--;
  8004201fee:	83 6d e4 01          	subl   $0x1,-0x1c(%rbp)
				while(last != j) {
  8004201ff2:	8b 45 e4             	mov    -0x1c(%rbp),%eax
  8004201ff5:	3b 45 e8             	cmp    -0x18(%rbp),%eax
  8004201ff8:	75 c8                	jne    8004201fc2 <multiboot_read+0x1da>
				}
				break;
  8004201ffa:	eb 10                	jmp    800420200c <multiboot_read+0x224>
		for(;j<i;j++) {
  8004201ffc:	83 45 e8 01          	addl   $0x1,-0x18(%rbp)
  8004202000:	8b 45 e8             	mov    -0x18(%rbp),%eax
  8004202003:	3b 45 ec             	cmp    -0x14(%rbp),%eax
  8004202006:	0f 8c 6f ff ff ff    	jl     8004201f7b <multiboot_read+0x193>
			}
		}
		mmap_list[j] = mmap;
  800420200c:	48 8b 45 c8          	mov    -0x38(%rbp),%rax
  8004202010:	8b 55 e8             	mov    -0x18(%rbp),%edx
  8004202013:	48 63 d2             	movslq %edx,%rdx
  8004202016:	48 8b 4d c0          	mov    -0x40(%rbp),%rcx
  800420201a:	48 89 0c d0          	mov    %rcx,(%rax,%rdx,8)
	for(i = 0; i < (mbinfo->mmap_length / (sizeof(memory_map_t))); i++) {
  800420201e:	83 45 ec 01          	addl   $0x1,-0x14(%rbp)
  8004202022:	8b 45 ec             	mov    -0x14(%rbp),%eax
  8004202025:	48 63 c8             	movslq %eax,%rcx
  8004202028:	48 8b 85 58 ff ff ff 	mov    -0xa8(%rbp),%rax
  800420202f:	8b 40 2c             	mov    0x2c(%rax),%eax
  8004202032:	ba ab aa aa aa       	mov    $0xaaaaaaab,%edx
  8004202037:	f7 e2                	mul    %edx
  8004202039:	89 d0                	mov    %edx,%eax
  800420203b:	c1 e8 04             	shr    $0x4,%eax
  800420203e:	89 c0                	mov    %eax,%eax
  8004202040:	48 39 c1             	cmp    %rax,%rcx
  8004202043:	0f 82 6d fe ff ff    	jb     8004201eb6 <multiboot_read+0xce>
	}
	cprintf("\n");
  8004202049:	48 bf 37 4b 21 04 80 	movabs $0x8004214b37,%rdi
  8004202050:	00 00 00 
  8004202053:	b8 00 00 00 00       	mov    $0x0,%eax
  8004202058:	48 ba 4a 95 20 04 80 	movabs $0x800420954a,%rdx
  800420205f:	00 00 00 
  8004202062:	ff d2                	callq  *%rdx

	// Sanitize the list
	for(i=1;i < (mbinfo->mmap_length / (sizeof(memory_map_t))); i++) {
  8004202064:	c7 45 ec 01 00 00 00 	movl   $0x1,-0x14(%rbp)
  800420206b:	e9 93 01 00 00       	jmpq   8004202203 <multiboot_read+0x41b>
		memory_map_t* prev = mmap_list[i-1];
  8004202070:	8b 45 ec             	mov    -0x14(%rbp),%eax
  8004202073:	8d 50 ff             	lea    -0x1(%rax),%edx
  8004202076:	48 8b 45 c8          	mov    -0x38(%rbp),%rax
  800420207a:	48 63 d2             	movslq %edx,%rdx
  800420207d:	48 8b 04 d0          	mov    (%rax,%rdx,8),%rax
  8004202081:	48 89 45 98          	mov    %rax,-0x68(%rbp)
		memory_map_t* this = mmap_list[i];
  8004202085:	48 8b 45 c8          	mov    -0x38(%rbp),%rax
  8004202089:	8b 55 ec             	mov    -0x14(%rbp),%edx
  800420208c:	48 63 d2             	movslq %edx,%rdx
  800420208f:	48 8b 04 d0          	mov    (%rax,%rdx,8),%rax
  8004202093:	48 89 45 90          	mov    %rax,-0x70(%rbp)

		uint64_t this_addr = APPEND_HILO(this->base_addr_high, this->base_addr_low);
  8004202097:	48 8b 45 90          	mov    -0x70(%rbp),%rax
  800420209b:	8b 40 08             	mov    0x8(%rax),%eax
  800420209e:	89 c0                	mov    %eax,%eax
  80042020a0:	48 c1 e0 20          	shl    $0x20,%rax
  80042020a4:	48 89 c2             	mov    %rax,%rdx
  80042020a7:	48 8b 45 90          	mov    -0x70(%rbp),%rax
  80042020ab:	8b 40 04             	mov    0x4(%rax),%eax
  80042020ae:	89 c0                	mov    %eax,%eax
  80042020b0:	48 01 d0             	add    %rdx,%rax
  80042020b3:	48 89 45 88          	mov    %rax,-0x78(%rbp)
		uint64_t prev_addr = APPEND_HILO(prev->base_addr_high, prev->base_addr_low);
  80042020b7:	48 8b 45 98          	mov    -0x68(%rbp),%rax
  80042020bb:	8b 40 08             	mov    0x8(%rax),%eax
  80042020be:	89 c0                	mov    %eax,%eax
  80042020c0:	48 c1 e0 20          	shl    $0x20,%rax
  80042020c4:	48 89 c2             	mov    %rax,%rdx
  80042020c7:	48 8b 45 98          	mov    -0x68(%rbp),%rax
  80042020cb:	8b 40 04             	mov    0x4(%rax),%eax
  80042020ce:	89 c0                	mov    %eax,%eax
  80042020d0:	48 01 d0             	add    %rdx,%rax
  80042020d3:	48 89 45 80          	mov    %rax,-0x80(%rbp)
		uint64_t prev_length = APPEND_HILO(prev->length_high, prev->length_low);
  80042020d7:	48 8b 45 98          	mov    -0x68(%rbp),%rax
  80042020db:	8b 40 10             	mov    0x10(%rax),%eax
  80042020de:	89 c0                	mov    %eax,%eax
  80042020e0:	48 c1 e0 20          	shl    $0x20,%rax
  80042020e4:	48 89 c2             	mov    %rax,%rdx
  80042020e7:	48 8b 45 98          	mov    -0x68(%rbp),%rax
  80042020eb:	8b 40 0c             	mov    0xc(%rax),%eax
  80042020ee:	89 c0                	mov    %eax,%eax
  80042020f0:	48 01 d0             	add    %rdx,%rax
  80042020f3:	48 89 85 78 ff ff ff 	mov    %rax,-0x88(%rbp)
		uint64_t this_length = APPEND_HILO(this->length_high, this->length_low);
  80042020fa:	48 8b 45 90          	mov    -0x70(%rbp),%rax
  80042020fe:	8b 40 10             	mov    0x10(%rax),%eax
  8004202101:	89 c0                	mov    %eax,%eax
  8004202103:	48 c1 e0 20          	shl    $0x20,%rax
  8004202107:	48 89 c2             	mov    %rax,%rdx
  800420210a:	48 8b 45 90          	mov    -0x70(%rbp),%rax
  800420210e:	8b 40 0c             	mov    0xc(%rax),%eax
  8004202111:	89 c0                	mov    %eax,%eax
  8004202113:	48 01 d0             	add    %rdx,%rax
  8004202116:	48 89 85 70 ff ff ff 	mov    %rax,-0x90(%rbp)

		// Merge adjacent regions with same type
		if(prev_addr + prev_length == this_addr && prev->type == this->type) {
  800420211d:	48 8b 55 80          	mov    -0x80(%rbp),%rdx
  8004202121:	48 8b 85 78 ff ff ff 	mov    -0x88(%rbp),%rax
  8004202128:	48 01 d0             	add    %rdx,%rax
  800420212b:	48 3b 45 88          	cmp    -0x78(%rbp),%rax
  800420212f:	75 7c                	jne    80042021ad <multiboot_read+0x3c5>
  8004202131:	48 8b 45 98          	mov    -0x68(%rbp),%rax
  8004202135:	8b 50 14             	mov    0x14(%rax),%edx
  8004202138:	48 8b 45 90          	mov    -0x70(%rbp),%rax
  800420213c:	8b 40 14             	mov    0x14(%rax),%eax
  800420213f:	39 c2                	cmp    %eax,%edx
  8004202141:	75 6a                	jne    80042021ad <multiboot_read+0x3c5>
			this->length_low = (uint32_t)prev_length + this_length;
  8004202143:	48 8b 85 78 ff ff ff 	mov    -0x88(%rbp),%rax
  800420214a:	89 c2                	mov    %eax,%edx
  800420214c:	48 8b 85 70 ff ff ff 	mov    -0x90(%rbp),%rax
  8004202153:	01 c2                	add    %eax,%edx
  8004202155:	48 8b 45 90          	mov    -0x70(%rbp),%rax
  8004202159:	89 50 0c             	mov    %edx,0xc(%rax)
			this->length_high = (uint32_t)((prev_length + this_length)>>32);
  800420215c:	48 8b 95 78 ff ff ff 	mov    -0x88(%rbp),%rdx
  8004202163:	48 8b 85 70 ff ff ff 	mov    -0x90(%rbp),%rax
  800420216a:	48 01 d0             	add    %rdx,%rax
  800420216d:	48 c1 e8 20          	shr    $0x20,%rax
  8004202171:	89 c2                	mov    %eax,%edx
  8004202173:	48 8b 45 90          	mov    -0x70(%rbp),%rax
  8004202177:	89 50 10             	mov    %edx,0x10(%rax)
			this->base_addr_low = prev->base_addr_low;
  800420217a:	48 8b 45 98          	mov    -0x68(%rbp),%rax
  800420217e:	8b 50 04             	mov    0x4(%rax),%edx
  8004202181:	48 8b 45 90          	mov    -0x70(%rbp),%rax
  8004202185:	89 50 04             	mov    %edx,0x4(%rax)
			this->base_addr_high = prev->base_addr_high;
  8004202188:	48 8b 45 98          	mov    -0x68(%rbp),%rax
  800420218c:	8b 50 08             	mov    0x8(%rax),%edx
  800420218f:	48 8b 45 90          	mov    -0x70(%rbp),%rax
  8004202193:	89 50 08             	mov    %edx,0x8(%rax)
			mmap_list[i-1] = NULL;
  8004202196:	8b 45 ec             	mov    -0x14(%rbp),%eax
  8004202199:	8d 50 ff             	lea    -0x1(%rax),%edx
  800420219c:	48 8b 45 c8          	mov    -0x38(%rbp),%rax
  80042021a0:	48 63 d2             	movslq %edx,%rdx
  80042021a3:	48 c7 04 d0 00 00 00 	movq   $0x0,(%rax,%rdx,8)
  80042021aa:	00 
  80042021ab:	eb 52                	jmp    80042021ff <multiboot_read+0x417>
		} else if(prev_addr + prev_length > this_addr) {
  80042021ad:	48 8b 55 80          	mov    -0x80(%rbp),%rdx
  80042021b1:	48 8b 85 78 ff ff ff 	mov    -0x88(%rbp),%rax
  80042021b8:	48 01 d0             	add    %rdx,%rax
  80042021bb:	48 3b 45 88          	cmp    -0x78(%rbp),%rax
  80042021bf:	76 3e                	jbe    80042021ff <multiboot_read+0x417>
			//Overlapping regions
			uint32_t type = restrictive_type(prev->type, this->type);
  80042021c1:	48 8b 45 90          	mov    -0x70(%rbp),%rax
  80042021c5:	8b 50 14             	mov    0x14(%rax),%edx
  80042021c8:	48 8b 45 98          	mov    -0x68(%rbp),%rax
  80042021cc:	8b 40 14             	mov    0x14(%rax),%eax
  80042021cf:	89 d6                	mov    %edx,%esi
  80042021d1:	89 c7                	mov    %eax,%edi
  80042021d3:	48 b8 48 1d 20 04 80 	movabs $0x8004201d48,%rax
  80042021da:	00 00 00 
  80042021dd:	ff d0                	callq  *%rax
  80042021df:	89 85 6c ff ff ff    	mov    %eax,-0x94(%rbp)
			prev->type = type;
  80042021e5:	48 8b 45 98          	mov    -0x68(%rbp),%rax
  80042021e9:	8b 95 6c ff ff ff    	mov    -0x94(%rbp),%edx
  80042021ef:	89 50 14             	mov    %edx,0x14(%rax)
			this->type = type;
  80042021f2:	48 8b 45 90          	mov    -0x70(%rbp),%rax
  80042021f6:	8b 95 6c ff ff ff    	mov    -0x94(%rbp),%edx
  80042021fc:	89 50 14             	mov    %edx,0x14(%rax)
	for(i=1;i < (mbinfo->mmap_length / (sizeof(memory_map_t))); i++) {
  80042021ff:	83 45 ec 01          	addl   $0x1,-0x14(%rbp)
  8004202203:	8b 45 ec             	mov    -0x14(%rbp),%eax
  8004202206:	48 63 c8             	movslq %eax,%rcx
  8004202209:	48 8b 85 58 ff ff ff 	mov    -0xa8(%rbp),%rax
  8004202210:	8b 40 2c             	mov    0x2c(%rax),%eax
  8004202213:	ba ab aa aa aa       	mov    $0xaaaaaaab,%edx
  8004202218:	f7 e2                	mul    %edx
  800420221a:	89 d0                	mov    %edx,%eax
  800420221c:	c1 e8 04             	shr    $0x4,%eax
  800420221f:	89 c0                	mov    %eax,%eax
  8004202221:	48 39 c1             	cmp    %rax,%rcx
  8004202224:	0f 82 46 fe ff ff    	jb     8004202070 <multiboot_read+0x288>
		}
	}

	for(i=0;i < (mbinfo->mmap_length / (sizeof(memory_map_t))); i++) {
  800420222a:	c7 45 ec 00 00 00 00 	movl   $0x0,-0x14(%rbp)
  8004202231:	e9 dc 00 00 00       	jmpq   8004202312 <multiboot_read+0x52a>
		memory_map_t* mmap = mmap_list[i];
  8004202236:	48 8b 45 c8          	mov    -0x38(%rbp),%rax
  800420223a:	8b 55 ec             	mov    -0x14(%rbp),%edx
  800420223d:	48 63 d2             	movslq %edx,%rdx
  8004202240:	48 8b 04 d0          	mov    (%rax,%rdx,8),%rax
  8004202244:	48 89 85 60 ff ff ff 	mov    %rax,-0xa0(%rbp)
		if(mmap) {
  800420224b:	48 83 bd 60 ff ff ff 	cmpq   $0x0,-0xa0(%rbp)
  8004202252:	00 
  8004202253:	0f 84 b5 00 00 00    	je     800420230e <multiboot_read+0x526>
			if(mmap->type == MB_TYPE_USABLE || mmap->type == MB_TYPE_ACPI_RECLM) {
  8004202259:	48 8b 85 60 ff ff ff 	mov    -0xa0(%rbp),%rax
  8004202260:	8b 40 14             	mov    0x14(%rax),%eax
  8004202263:	83 f8 01             	cmp    $0x1,%eax
  8004202266:	74 13                	je     800420227b <multiboot_read+0x493>
  8004202268:	48 8b 85 60 ff ff ff 	mov    -0xa0(%rbp),%rax
  800420226f:	8b 40 14             	mov    0x14(%rax),%eax
  8004202272:	83 f8 03             	cmp    $0x3,%eax
  8004202275:	0f 85 93 00 00 00    	jne    800420230e <multiboot_read+0x526>
				if(mmap->base_addr_low < 0x100000 && mmap->base_addr_high == 0)
  800420227b:	48 8b 85 60 ff ff ff 	mov    -0xa0(%rbp),%rax
  8004202282:	8b 40 04             	mov    0x4(%rax),%eax
  8004202285:	3d ff ff 0f 00       	cmp    $0xfffff,%eax
  800420228a:	77 49                	ja     80042022d5 <multiboot_read+0x4ed>
  800420228c:	48 8b 85 60 ff ff ff 	mov    -0xa0(%rbp),%rax
  8004202293:	8b 40 08             	mov    0x8(%rax),%eax
  8004202296:	85 c0                	test   %eax,%eax
  8004202298:	75 3b                	jne    80042022d5 <multiboot_read+0x4ed>
					*basemem += APPEND_HILO(mmap->length_high, mmap->length_low);
  800420229a:	48 8b 85 50 ff ff ff 	mov    -0xb0(%rbp),%rax
  80042022a1:	48 8b 10             	mov    (%rax),%rdx
  80042022a4:	48 8b 85 60 ff ff ff 	mov    -0xa0(%rbp),%rax
  80042022ab:	8b 40 10             	mov    0x10(%rax),%eax
  80042022ae:	89 c0                	mov    %eax,%eax
  80042022b0:	48 c1 e0 20          	shl    $0x20,%rax
  80042022b4:	48 89 c1             	mov    %rax,%rcx
  80042022b7:	48 8b 85 60 ff ff ff 	mov    -0xa0(%rbp),%rax
  80042022be:	8b 40 0c             	mov    0xc(%rax),%eax
  80042022c1:	89 c0                	mov    %eax,%eax
  80042022c3:	48 01 c8             	add    %rcx,%rax
  80042022c6:	48 01 c2             	add    %rax,%rdx
  80042022c9:	48 8b 85 50 ff ff ff 	mov    -0xb0(%rbp),%rax
  80042022d0:	48 89 10             	mov    %rdx,(%rax)
  80042022d3:	eb 39                	jmp    800420230e <multiboot_read+0x526>
				else
					*extmem += APPEND_HILO(mmap->length_high, mmap->length_low);
  80042022d5:	48 8b 85 48 ff ff ff 	mov    -0xb8(%rbp),%rax
  80042022dc:	48 8b 10             	mov    (%rax),%rdx
  80042022df:	48 8b 85 60 ff ff ff 	mov    -0xa0(%rbp),%rax
  80042022e6:	8b 40 10             	mov    0x10(%rax),%eax
  80042022e9:	89 c0                	mov    %eax,%eax
  80042022eb:	48 c1 e0 20          	shl    $0x20,%rax
  80042022ef:	48 89 c1             	mov    %rax,%rcx
  80042022f2:	48 8b 85 60 ff ff ff 	mov    -0xa0(%rbp),%rax
  80042022f9:	8b 40 0c             	mov    0xc(%rax),%eax
  80042022fc:	89 c0                	mov    %eax,%eax
  80042022fe:	48 01 c8             	add    %rcx,%rax
  8004202301:	48 01 c2             	add    %rax,%rdx
  8004202304:	48 8b 85 48 ff ff ff 	mov    -0xb8(%rbp),%rax
  800420230b:	48 89 10             	mov    %rdx,(%rax)
	for(i=0;i < (mbinfo->mmap_length / (sizeof(memory_map_t))); i++) {
  800420230e:	83 45 ec 01          	addl   $0x1,-0x14(%rbp)
  8004202312:	8b 45 ec             	mov    -0x14(%rbp),%eax
  8004202315:	48 63 c8             	movslq %eax,%rcx
  8004202318:	48 8b 85 58 ff ff ff 	mov    -0xa8(%rbp),%rax
  800420231f:	8b 40 2c             	mov    0x2c(%rax),%eax
  8004202322:	ba ab aa aa aa       	mov    $0xaaaaaaab,%edx
  8004202327:	f7 e2                	mul    %edx
  8004202329:	89 d0                	mov    %edx,%eax
  800420232b:	c1 e8 04             	shr    $0x4,%eax
  800420232e:	89 c0                	mov    %eax,%eax
  8004202330:	48 39 c1             	cmp    %rax,%rcx
  8004202333:	0f 82 fd fe ff ff    	jb     8004202236 <multiboot_read+0x44e>
  8004202339:	48 89 dc             	mov    %rbx,%rsp
			}
		}
	}
}
  800420233c:	48 8b 5d f8          	mov    -0x8(%rbp),%rbx
  8004202340:	c9                   	leaveq 
  8004202341:	c3                   	retq   

0000008004202342 <i386_detect_memory>:

static void
i386_detect_memory(void)
{
  8004202342:	55                   	push   %rbp
  8004202343:	48 89 e5             	mov    %rsp,%rbp
  8004202346:	48 83 ec 50          	sub    $0x50,%rsp
	size_t npages_extmem;
	size_t basemem = 0;
  800420234a:	48 c7 45 c0 00 00 00 	movq   $0x0,-0x40(%rbp)
  8004202351:	00 
	size_t extmem = 0;
  8004202352:	48 c7 45 b8 00 00 00 	movq   $0x0,-0x48(%rbp)
  8004202359:	00 

	// Check if the bootloader passed us a multiboot structure
	extern char multiboot_info[];
	uintptr_t* mbp = (uintptr_t*)multiboot_info;
  800420235a:	48 b8 00 70 10 00 00 	movabs $0x107000,%rax
  8004202361:	00 00 00 
  8004202364:	48 89 45 f0          	mov    %rax,-0x10(%rbp)
	multiboot_info_t * mbinfo = (multiboot_info_t*)*mbp;
  8004202368:	48 8b 45 f0          	mov    -0x10(%rbp),%rax
  800420236c:	48 8b 00             	mov    (%rax),%rax
  800420236f:	48 89 45 e8          	mov    %rax,-0x18(%rbp)

	if(mbinfo && (mbinfo->flags & MB_FLAG_MMAP)) {
  8004202373:	48 83 7d e8 00       	cmpq   $0x0,-0x18(%rbp)
  8004202378:	74 2d                	je     80042023a7 <i386_detect_memory+0x65>
  800420237a:	48 8b 45 e8          	mov    -0x18(%rbp),%rax
  800420237e:	8b 00                	mov    (%rax),%eax
  8004202380:	83 e0 40             	and    $0x40,%eax
  8004202383:	85 c0                	test   %eax,%eax
  8004202385:	74 20                	je     80042023a7 <i386_detect_memory+0x65>
		multiboot_read(mbinfo, &basemem, &extmem);
  8004202387:	48 8d 55 b8          	lea    -0x48(%rbp),%rdx
  800420238b:	48 8d 4d c0          	lea    -0x40(%rbp),%rcx
  800420238f:	48 8b 45 e8          	mov    -0x18(%rbp),%rax
  8004202393:	48 89 ce             	mov    %rcx,%rsi
  8004202396:	48 89 c7             	mov    %rax,%rdi
  8004202399:	48 b8 e8 1d 20 04 80 	movabs $0x8004201de8,%rax
  80042023a0:	00 00 00 
  80042023a3:	ff d0                	callq  *%rax
  80042023a5:	eb 34                	jmp    80042023db <i386_detect_memory+0x99>
	} else {
		basemem = (nvram_read(NVRAM_BASELO) * 1024);
  80042023a7:	bf 15 00 00 00       	mov    $0x15,%edi
  80042023ac:	48 b8 a9 1d 20 04 80 	movabs $0x8004201da9,%rax
  80042023b3:	00 00 00 
  80042023b6:	ff d0                	callq  *%rax
  80042023b8:	c1 e0 0a             	shl    $0xa,%eax
  80042023bb:	48 98                	cltq   
  80042023bd:	48 89 45 c0          	mov    %rax,-0x40(%rbp)
		extmem = (nvram_read(NVRAM_EXTLO) * 1024);
  80042023c1:	bf 17 00 00 00       	mov    $0x17,%edi
  80042023c6:	48 b8 a9 1d 20 04 80 	movabs $0x8004201da9,%rax
  80042023cd:	00 00 00 
  80042023d0:	ff d0                	callq  *%rax
  80042023d2:	c1 e0 0a             	shl    $0xa,%eax
  80042023d5:	48 98                	cltq   
  80042023d7:	48 89 45 b8          	mov    %rax,-0x48(%rbp)
	}

	assert(basemem);
  80042023db:	48 8b 45 c0          	mov    -0x40(%rbp),%rax
  80042023df:	48 85 c0             	test   %rax,%rax
  80042023e2:	75 35                	jne    8004202419 <i386_detect_memory+0xd7>
  80042023e4:	48 b9 39 4b 21 04 80 	movabs $0x8004214b39,%rcx
  80042023eb:	00 00 00 
  80042023ee:	48 ba 41 4b 21 04 80 	movabs $0x8004214b41,%rdx
  80042023f5:	00 00 00 
  80042023f8:	be 86 00 00 00       	mov    $0x86,%esi
  80042023fd:	48 bf 56 4b 21 04 80 	movabs $0x8004214b56,%rdi
  8004202404:	00 00 00 
  8004202407:	b8 00 00 00 00       	mov    $0x0,%eax
  800420240c:	49 b8 a6 05 20 04 80 	movabs $0x80042005a6,%r8
  8004202413:	00 00 00 
  8004202416:	41 ff d0             	callq  *%r8

	npages_basemem = basemem / PGSIZE;
  8004202419:	48 8b 45 c0          	mov    -0x40(%rbp),%rax
  800420241d:	48 c1 e8 0c          	shr    $0xc,%rax
  8004202421:	48 89 c2             	mov    %rax,%rdx
  8004202424:	48 b8 50 b2 57 04 80 	movabs $0x800457b250,%rax
  800420242b:	00 00 00 
  800420242e:	48 89 10             	mov    %rdx,(%rax)
	npages_extmem = extmem / PGSIZE;
  8004202431:	48 8b 45 b8          	mov    -0x48(%rbp),%rax
  8004202435:	48 c1 e8 0c          	shr    $0xc,%rax
  8004202439:	48 89 45 f8          	mov    %rax,-0x8(%rbp)

	if(nvram_read(NVRAM_EXTLO) == 0xffff) {
  800420243d:	bf 17 00 00 00       	mov    $0x17,%edi
  8004202442:	48 b8 a9 1d 20 04 80 	movabs $0x8004201da9,%rax
  8004202449:	00 00 00 
  800420244c:	ff d0                	callq  *%rax
  800420244e:	3d ff ff 00 00       	cmp    $0xffff,%eax
  8004202453:	75 2c                	jne    8004202481 <i386_detect_memory+0x13f>
		// EXTMEM > 16M in blocks of 64k
		size_t pextmem = nvram_read(NVRAM_EXTGT16LO) * (64 * 1024);
  8004202455:	bf 34 00 00 00       	mov    $0x34,%edi
  800420245a:	48 b8 a9 1d 20 04 80 	movabs $0x8004201da9,%rax
  8004202461:	00 00 00 
  8004202464:	ff d0                	callq  *%rax
  8004202466:	c1 e0 10             	shl    $0x10,%eax
  8004202469:	48 98                	cltq   
  800420246b:	48 89 45 e0          	mov    %rax,-0x20(%rbp)
		npages_extmem = ((16 * 1024 * 1024) + pextmem - (1 * 1024 * 1024)) / PGSIZE;
  800420246f:	48 8b 45 e0          	mov    -0x20(%rbp),%rax
  8004202473:	48 05 00 00 f0 00    	add    $0xf00000,%rax
  8004202479:	48 c1 e8 0c          	shr    $0xc,%rax
  800420247d:	48 89 45 f8          	mov    %rax,-0x8(%rbp)
	}

	// Calculate the number of physical pages available in both base
	// and extended memory.
	if (npages_extmem)
  8004202481:	48 83 7d f8 00       	cmpq   $0x0,-0x8(%rbp)
  8004202486:	74 1a                	je     80042024a2 <i386_detect_memory+0x160>
		npages = (EXTPHYSMEM / PGSIZE) + npages_extmem;
  8004202488:	48 8b 45 f8          	mov    -0x8(%rbp),%rax
  800420248c:	48 8d 90 00 01 00 00 	lea    0x100(%rax),%rdx
  8004202493:	48 b8 d0 c7 57 04 80 	movabs $0x800457c7d0,%rax
  800420249a:	00 00 00 
  800420249d:	48 89 10             	mov    %rdx,(%rax)
  80042024a0:	eb 1a                	jmp    80042024bc <i386_detect_memory+0x17a>
	else
		npages = npages_basemem;
  80042024a2:	48 b8 50 b2 57 04 80 	movabs $0x800457b250,%rax
  80042024a9:	00 00 00 
  80042024ac:	48 8b 10             	mov    (%rax),%rdx
  80042024af:	48 b8 d0 c7 57 04 80 	movabs $0x800457c7d0,%rax
  80042024b6:	00 00 00 
  80042024b9:	48 89 10             	mov    %rdx,(%rax)

	cprintf("Physical memory: %uM available, base = %uK, extended = %uK, npages = %d\n",
  80042024bc:	48 b8 d0 c7 57 04 80 	movabs $0x800457c7d0,%rax
  80042024c3:	00 00 00 
  80042024c6:	48 8b 30             	mov    (%rax),%rsi
		npages * PGSIZE / (1024 * 1024),
		npages_basemem * PGSIZE / 1024,
		npages_extmem * PGSIZE / 1024,
  80042024c9:	48 8b 45 f8          	mov    -0x8(%rbp),%rax
  80042024cd:	48 c1 e0 0c          	shl    $0xc,%rax
	cprintf("Physical memory: %uM available, base = %uK, extended = %uK, npages = %d\n",
  80042024d1:	48 c1 e8 0a          	shr    $0xa,%rax
  80042024d5:	48 89 c1             	mov    %rax,%rcx
		npages_basemem * PGSIZE / 1024,
  80042024d8:	48 b8 50 b2 57 04 80 	movabs $0x800457b250,%rax
  80042024df:	00 00 00 
  80042024e2:	48 8b 00             	mov    (%rax),%rax
  80042024e5:	48 c1 e0 0c          	shl    $0xc,%rax
	cprintf("Physical memory: %uM available, base = %uK, extended = %uK, npages = %d\n",
  80042024e9:	48 c1 e8 0a          	shr    $0xa,%rax
  80042024ed:	48 89 c2             	mov    %rax,%rdx
		npages * PGSIZE / (1024 * 1024),
  80042024f0:	48 b8 d0 c7 57 04 80 	movabs $0x800457c7d0,%rax
  80042024f7:	00 00 00 
  80042024fa:	48 8b 00             	mov    (%rax),%rax
  80042024fd:	48 c1 e0 0c          	shl    $0xc,%rax
	cprintf("Physical memory: %uM available, base = %uK, extended = %uK, npages = %d\n",
  8004202501:	48 c1 e8 14          	shr    $0x14,%rax
  8004202505:	49 89 f0             	mov    %rsi,%r8
  8004202508:	48 89 c6             	mov    %rax,%rsi
  800420250b:	48 bf 68 4b 21 04 80 	movabs $0x8004214b68,%rdi
  8004202512:	00 00 00 
  8004202515:	b8 00 00 00 00       	mov    $0x0,%eax
  800420251a:	49 b9 4a 95 20 04 80 	movabs $0x800420954a,%r9
  8004202521:	00 00 00 
  8004202524:	41 ff d1             	callq  *%r9
	//JOS 64 pages are limited by the size of both the UPAGES
	//  virtual address space, and the range from KERNBASE to UVPT.
	//
	// NB: qemu seems to have a bug that crashes the host system on 13.10 if you try to
	//     max out memory.
	uint64_t upages_max = (ULIM - UPAGES) / sizeof(struct PageInfo);
  8004202527:	48 c7 45 d8 00 00 32 	movq   $0x320000,-0x28(%rbp)
  800420252e:	00 
	uint64_t kern_mem_max = (UVPT - KERNBASE) / PGSIZE;
  800420252f:	48 c7 45 d0 00 c0 ff 	movq   $0x7ffc000,-0x30(%rbp)
  8004202536:	07 
	cprintf("Pages limited to %llu by upage address range (%uMB), Pages limited to %llu by remapped phys mem (%uMB)\n",
		upages_max, ((upages_max * PGSIZE) / (1024 * 1024)),
		kern_mem_max, kern_mem_max * PGSIZE / (1024 * 1024));
  8004202537:	48 8b 45 d0          	mov    -0x30(%rbp),%rax
  800420253b:	48 c1 e0 0c          	shl    $0xc,%rax
	cprintf("Pages limited to %llu by upage address range (%uMB), Pages limited to %llu by remapped phys mem (%uMB)\n",
  800420253f:	48 c1 e8 14          	shr    $0x14,%rax
  8004202543:	48 89 c1             	mov    %rax,%rcx
		upages_max, ((upages_max * PGSIZE) / (1024 * 1024)),
  8004202546:	48 8b 45 d8          	mov    -0x28(%rbp),%rax
  800420254a:	48 c1 e0 0c          	shl    $0xc,%rax
	cprintf("Pages limited to %llu by upage address range (%uMB), Pages limited to %llu by remapped phys mem (%uMB)\n",
  800420254e:	48 c1 e8 14          	shr    $0x14,%rax
  8004202552:	48 89 c6             	mov    %rax,%rsi
  8004202555:	48 8b 55 d0          	mov    -0x30(%rbp),%rdx
  8004202559:	48 8b 45 d8          	mov    -0x28(%rbp),%rax
  800420255d:	49 89 c8             	mov    %rcx,%r8
  8004202560:	48 89 d1             	mov    %rdx,%rcx
  8004202563:	48 89 f2             	mov    %rsi,%rdx
  8004202566:	48 89 c6             	mov    %rax,%rsi
  8004202569:	48 bf b8 4b 21 04 80 	movabs $0x8004214bb8,%rdi
  8004202570:	00 00 00 
  8004202573:	b8 00 00 00 00       	mov    $0x0,%eax
  8004202578:	49 b9 4a 95 20 04 80 	movabs $0x800420954a,%r9
  800420257f:	00 00 00 
  8004202582:	41 ff d1             	callq  *%r9
	uint64_t max_npages = upages_max < kern_mem_max ? upages_max : kern_mem_max;
  8004202585:	48 8b 45 d8          	mov    -0x28(%rbp),%rax
  8004202589:	48 39 45 d0          	cmp    %rax,-0x30(%rbp)
  800420258d:	48 0f 46 45 d0       	cmovbe -0x30(%rbp),%rax
  8004202592:	48 89 45 c8          	mov    %rax,-0x38(%rbp)

	if(npages > max_npages) {
  8004202596:	48 b8 d0 c7 57 04 80 	movabs $0x800457c7d0,%rax
  800420259d:	00 00 00 
  80042025a0:	48 8b 00             	mov    (%rax),%rax
  80042025a3:	48 3b 45 c8          	cmp    -0x38(%rbp),%rax
  80042025a7:	76 3a                	jbe    80042025e3 <i386_detect_memory+0x2a1>
		npages = max_npages - 1024;
  80042025a9:	48 8b 45 c8          	mov    -0x38(%rbp),%rax
  80042025ad:	48 8d 90 00 fc ff ff 	lea    -0x400(%rax),%rdx
  80042025b4:	48 b8 d0 c7 57 04 80 	movabs $0x800457c7d0,%rax
  80042025bb:	00 00 00 
  80042025be:	48 89 10             	mov    %rdx,(%rax)
		cprintf("Using only %uK of the available memory.\n", max_npages);
  80042025c1:	48 8b 45 c8          	mov    -0x38(%rbp),%rax
  80042025c5:	48 89 c6             	mov    %rax,%rsi
  80042025c8:	48 bf 20 4c 21 04 80 	movabs $0x8004214c20,%rdi
  80042025cf:	00 00 00 
  80042025d2:	b8 00 00 00 00       	mov    $0x0,%eax
  80042025d7:	48 ba 4a 95 20 04 80 	movabs $0x800420954a,%rdx
  80042025de:	00 00 00 
  80042025e1:	ff d2                	callq  *%rdx
	}
}
  80042025e3:	c9                   	leaveq 
  80042025e4:	c3                   	retq   

00000080042025e5 <boot_alloc>:
// If we're out of memory, boot_alloc should panic.
// This function may ONLY be used during initialization,
// before the page_free_list list has been set up.
static void *
boot_alloc(uint32_t n)
{
  80042025e5:	55                   	push   %rbp
  80042025e6:	48 89 e5             	mov    %rsp,%rbp
  80042025e9:	48 83 ec 40          	sub    $0x40,%rsp
  80042025ed:	89 7d cc             	mov    %edi,-0x34(%rbp)
	// Initialize nextfree if this is the first time.
	// 'end' is a magic symbol automatically generated by the linker,
	// which points to the end of the kernel's bss segment:
	// the first virtual address that the linker did *not* assign
	// to any kernel code or global variables.
	if (!nextfree) {
  80042025f0:	48 b8 68 b2 57 04 80 	movabs $0x800457b268,%rax
  80042025f7:	00 00 00 
  80042025fa:	48 8b 00             	mov    (%rax),%rax
  80042025fd:	48 85 c0             	test   %rax,%rax
  8004202600:	75 45                	jne    8004202647 <boot_alloc+0x62>
#ifdef VMM_GUEST
		extern char end[];
		nextfree = ROUNDUP((char *) end, PGSIZE);
  8004202602:	48 c7 45 f8 00 10 00 	movq   $0x1000,-0x8(%rbp)
  8004202609:	00 
  800420260a:	48 b8 10 f0 5b 04 80 	movabs $0x80045bf010,%rax
  8004202611:	00 00 00 
  8004202614:	48 8d 50 ff          	lea    -0x1(%rax),%rdx
  8004202618:	48 8b 45 f8          	mov    -0x8(%rbp),%rax
  800420261c:	48 01 d0             	add    %rdx,%rax
  800420261f:	48 89 45 f0          	mov    %rax,-0x10(%rbp)
  8004202623:	48 8b 45 f0          	mov    -0x10(%rbp),%rax
  8004202627:	ba 00 00 00 00       	mov    $0x0,%edx
  800420262c:	48 f7 75 f8          	divq   -0x8(%rbp)
  8004202630:	48 8b 45 f0          	mov    -0x10(%rbp),%rax
  8004202634:	48 29 d0             	sub    %rdx,%rax
  8004202637:	48 89 c2             	mov    %rax,%rdx
  800420263a:	48 b8 68 b2 57 04 80 	movabs $0x800457b268,%rax
  8004202641:	00 00 00 
  8004202644:	48 89 10             	mov    %rdx,(%rax)
	// Allocate a chunk large enough to hold 'n' bytes, then update
	// nextfree.  Make sure nextfree is kept aligned
	// to a multiple of PGSIZE.
	//
	// LAB 2: Your code here.
  if ((uintptr_t)nextfree + n < (uintptr_t)nextfree
  8004202647:	8b 55 cc             	mov    -0x34(%rbp),%edx
  800420264a:	48 b8 68 b2 57 04 80 	movabs $0x800457b268,%rax
  8004202651:	00 00 00 
  8004202654:	48 8b 00             	mov    (%rax),%rax
  8004202657:	48 01 c2             	add    %rax,%rdx
  800420265a:	48 b8 68 b2 57 04 80 	movabs $0x800457b268,%rax
  8004202661:	00 00 00 
  8004202664:	48 8b 00             	mov    (%rax),%rax
  8004202667:	48 39 c2             	cmp    %rax,%rdx
  800420266a:	72 2f                	jb     800420269b <boot_alloc+0xb6>
      || nextfree + n > (char *) (npages * PGSIZE + KERNBASE)) {
  800420266c:	48 b8 68 b2 57 04 80 	movabs $0x800457b268,%rax
  8004202673:	00 00 00 
  8004202676:	48 8b 10             	mov    (%rax),%rdx
  8004202679:	8b 45 cc             	mov    -0x34(%rbp),%eax
  800420267c:	48 01 c2             	add    %rax,%rdx
  800420267f:	48 b8 d0 c7 57 04 80 	movabs $0x800457c7d0,%rax
  8004202686:	00 00 00 
  8004202689:	48 8b 00             	mov    (%rax),%rax
  800420268c:	48 05 00 40 00 08    	add    $0x8004000,%rax
  8004202692:	48 c1 e0 0c          	shl    $0xc,%rax
  8004202696:	48 39 c2             	cmp    %rax,%rdx
  8004202699:	76 2a                	jbe    80042026c5 <boot_alloc+0xe0>
    panic("out of memory during x64_vm_init");
  800420269b:	48 ba 50 4c 21 04 80 	movabs $0x8004214c50,%rdx
  80042026a2:	00 00 00 
  80042026a5:	be e5 00 00 00       	mov    $0xe5,%esi
  80042026aa:	48 bf 56 4b 21 04 80 	movabs $0x8004214b56,%rdi
  80042026b1:	00 00 00 
  80042026b4:	b8 00 00 00 00       	mov    $0x0,%eax
  80042026b9:	48 b9 a6 05 20 04 80 	movabs $0x80042005a6,%rcx
  80042026c0:	00 00 00 
  80042026c3:	ff d1                	callq  *%rcx
  }
  result=nextfree;
  80042026c5:	48 b8 68 b2 57 04 80 	movabs $0x800457b268,%rax
  80042026cc:	00 00 00 
  80042026cf:	48 8b 00             	mov    (%rax),%rax
  80042026d2:	48 89 45 e8          	mov    %rax,-0x18(%rbp)
  nextfree = ROUNDUP(nextfree + n, PGSIZE);
  80042026d6:	48 c7 45 e0 00 10 00 	movq   $0x1000,-0x20(%rbp)
  80042026dd:	00 
  80042026de:	48 b8 68 b2 57 04 80 	movabs $0x800457b268,%rax
  80042026e5:	00 00 00 
  80042026e8:	48 8b 10             	mov    (%rax),%rdx
  80042026eb:	8b 45 cc             	mov    -0x34(%rbp),%eax
  80042026ee:	48 01 d0             	add    %rdx,%rax
  80042026f1:	48 89 c2             	mov    %rax,%rdx
  80042026f4:	48 8b 45 e0          	mov    -0x20(%rbp),%rax
  80042026f8:	48 01 d0             	add    %rdx,%rax
  80042026fb:	48 83 e8 01          	sub    $0x1,%rax
  80042026ff:	48 89 45 d8          	mov    %rax,-0x28(%rbp)
  8004202703:	48 8b 45 d8          	mov    -0x28(%rbp),%rax
  8004202707:	ba 00 00 00 00       	mov    $0x0,%edx
  800420270c:	48 f7 75 e0          	divq   -0x20(%rbp)
  8004202710:	48 8b 45 d8          	mov    -0x28(%rbp),%rax
  8004202714:	48 29 d0             	sub    %rdx,%rax
  8004202717:	48 89 c2             	mov    %rax,%rdx
  800420271a:	48 b8 68 b2 57 04 80 	movabs $0x800457b268,%rax
  8004202721:	00 00 00 
  8004202724:	48 89 10             	mov    %rdx,(%rax)
  return result;
  8004202727:	48 8b 45 e8          	mov    -0x18(%rbp),%rax

	// return NULL;
}
  800420272b:	c9                   	leaveq 
  800420272c:	c3                   	retq   

000000800420272d <x64_vm_init>:
//
// From UTOP to ULIM, the user is allowed to read but not write.
// Above ULIM the user cannot read or write.
void
x64_vm_init(void)
{
  800420272d:	55                   	push   %rbp
  800420272e:	48 89 e5             	mov    %rsp,%rbp
  8004202731:	48 83 c4 80          	add    $0xffffffffffffff80,%rsp
	pml4e_t* pml4e;
	uint32_t cr0;
	uint64_t n;
	int r;
	struct Env *env;
	i386_detect_memory();
  8004202735:	48 b8 42 23 20 04 80 	movabs $0x8004202342,%rax
  800420273c:	00 00 00 
  800420273f:	ff d0                	callq  *%rax
	//panic("i386_vm_init: This function is not finished\n");
	//////////////////////////////////////////////////////////////////////
	// create initial page directory.
	// panic("x64_vm_init: this function is not finished\n");
	pml4e = boot_alloc(PGSIZE);
  8004202741:	bf 00 10 00 00       	mov    $0x1000,%edi
  8004202746:	48 b8 e5 25 20 04 80 	movabs $0x80042025e5,%rax
  800420274d:	00 00 00 
  8004202750:	ff d0                	callq  *%rax
  8004202752:	48 89 45 f8          	mov    %rax,-0x8(%rbp)
	memset(pml4e, 0, PGSIZE);
  8004202756:	48 8b 45 f8          	mov    -0x8(%rbp),%rax
  800420275a:	ba 00 10 00 00       	mov    $0x1000,%edx
  800420275f:	be 00 00 00 00       	mov    $0x0,%esi
  8004202764:	48 89 c7             	mov    %rax,%rdi
  8004202767:	48 b8 e8 c4 20 04 80 	movabs $0x800420c4e8,%rax
  800420276e:	00 00 00 
  8004202771:	ff d0                	callq  *%rax
	boot_pml4e = pml4e;
  8004202773:	48 b8 c8 c7 57 04 80 	movabs $0x800457c7c8,%rax
  800420277a:	00 00 00 
  800420277d:	48 8b 55 f8          	mov    -0x8(%rbp),%rdx
  8004202781:	48 89 10             	mov    %rdx,(%rax)
	boot_cr3 = PADDR(pml4e);
  8004202784:	48 8b 45 f8          	mov    -0x8(%rbp),%rax
  8004202788:	48 89 45 f0          	mov    %rax,-0x10(%rbp)
  800420278c:	48 b8 ff ff ff 03 80 	movabs $0x8003ffffff,%rax
  8004202793:	00 00 00 
  8004202796:	48 39 45 f0          	cmp    %rax,-0x10(%rbp)
  800420279a:	77 32                	ja     80042027ce <x64_vm_init+0xa1>
  800420279c:	48 8b 45 f0          	mov    -0x10(%rbp),%rax
  80042027a0:	48 89 c1             	mov    %rax,%rcx
  80042027a3:	48 ba 78 4c 21 04 80 	movabs $0x8004214c78,%rdx
  80042027aa:	00 00 00 
  80042027ad:	be 07 01 00 00       	mov    $0x107,%esi
  80042027b2:	48 bf 56 4b 21 04 80 	movabs $0x8004214b56,%rdi
  80042027b9:	00 00 00 
  80042027bc:	b8 00 00 00 00       	mov    $0x0,%eax
  80042027c1:	49 b8 a6 05 20 04 80 	movabs $0x80042005a6,%r8
  80042027c8:	00 00 00 
  80042027cb:	41 ff d0             	callq  *%r8
  80042027ce:	48 ba 00 00 00 fc 7f 	movabs $0xffffff7ffc000000,%rdx
  80042027d5:	ff ff ff 
  80042027d8:	48 8b 45 f0          	mov    -0x10(%rbp),%rax
  80042027dc:	48 01 c2             	add    %rax,%rdx
  80042027df:	48 b8 c0 c7 57 04 80 	movabs $0x800457c7c0,%rax
  80042027e6:	00 00 00 
  80042027e9:	48 89 10             	mov    %rdx,(%rax)
	// Allocate an array of npages 'struct PageInfo's and store it in 'pages'.
	// The kernel uses this array to keep track of physical pages: for
	// each physical page, there is a corresponding struct PageInfo in this
	// array.  'npages' is the number of physical pages in memory.
	// Your code goes here:
	n = npages * sizeof(struct PageInfo);
  80042027ec:	48 b8 d0 c7 57 04 80 	movabs $0x800457c7d0,%rax
  80042027f3:	00 00 00 
  80042027f6:	48 8b 00             	mov    (%rax),%rax
  80042027f9:	48 c1 e0 04          	shl    $0x4,%rax
  80042027fd:	48 89 45 e8          	mov    %rax,-0x18(%rbp)
	pages = (struct PageInfo *) boot_alloc(n);
  8004202801:	48 8b 45 e8          	mov    -0x18(%rbp),%rax
  8004202805:	89 c7                	mov    %eax,%edi
  8004202807:	48 b8 e5 25 20 04 80 	movabs $0x80042025e5,%rax
  800420280e:	00 00 00 
  8004202811:	ff d0                	callq  *%rax
  8004202813:	48 89 c2             	mov    %rax,%rdx
  8004202816:	48 b8 d8 c7 57 04 80 	movabs $0x800457c7d8,%rax
  800420281d:	00 00 00 
  8004202820:	48 89 10             	mov    %rdx,(%rax)
	memset(pages, 0, n);
  8004202823:	48 b8 d8 c7 57 04 80 	movabs $0x800457c7d8,%rax
  800420282a:	00 00 00 
  800420282d:	48 8b 00             	mov    (%rax),%rax
  8004202830:	48 8b 55 e8          	mov    -0x18(%rbp),%rdx
  8004202834:	be 00 00 00 00       	mov    $0x0,%esi
  8004202839:	48 89 c7             	mov    %rax,%rdi
  800420283c:	48 b8 e8 c4 20 04 80 	movabs $0x800420c4e8,%rax
  8004202843:	00 00 00 
  8004202846:	ff d0                	callq  *%rax
	//////////////////////////////////////////////////////////////////////
	// Make 'envs' point to an array of size 'NENV' of 'struct Env'.
	// LAB 3: Your code here.
	envs    = boot_alloc(sizeof(struct Env)*NENV);
  8004202848:	bf 00 a0 05 00       	mov    $0x5a000,%edi
  800420284d:	48 b8 e5 25 20 04 80 	movabs $0x80042025e5,%rax
  8004202854:	00 00 00 
  8004202857:	ff d0                	callq  *%rax
  8004202859:	48 89 c2             	mov    %rax,%rdx
  800420285c:	48 b8 78 b2 57 04 80 	movabs $0x800457b278,%rax
  8004202863:	00 00 00 
  8004202866:	48 89 10             	mov    %rdx,(%rax)
	memset(envs, 0, sizeof(struct Env)*NENV);
  8004202869:	48 b8 78 b2 57 04 80 	movabs $0x800457b278,%rax
  8004202870:	00 00 00 
  8004202873:	48 8b 00             	mov    (%rax),%rax
  8004202876:	ba 00 a0 05 00       	mov    $0x5a000,%edx
  800420287b:	be 00 00 00 00       	mov    $0x0,%esi
  8004202880:	48 89 c7             	mov    %rax,%rdi
  8004202883:	48 b8 e8 c4 20 04 80 	movabs $0x800420c4e8,%rax
  800420288a:	00 00 00 
  800420288d:	ff d0                	callq  *%rax
	//////////////////////////////////////////////////////////////////////
	// Now that we've allocated the initial kernel data structures, we set
	// up the list of free physical pages. Once we've done so, all further
	// memory management will go through the page_* functions. In
	// particular, we can now map memory using boot_map_region or page_insert
	page_init();
  800420288f:	48 b8 e7 2c 20 04 80 	movabs $0x8004202ce7,%rax
  8004202896:	00 00 00 
  8004202899:	ff d0                	callq  *%rax
	// Permissions:
	//    - the new image at UPAGES -- kernel R, us/er R
	//      (ie. perm = PTE_U | PTE_P)
	//    - pages itself -- kernel RW, user NONE
	// Your code goes here:
	n = npages*sizeof(struct PageInfo);
  800420289b:	48 b8 d0 c7 57 04 80 	movabs $0x800457c7d0,%rax
  80042028a2:	00 00 00 
  80042028a5:	48 8b 00             	mov    (%rax),%rax
  80042028a8:	48 c1 e0 04          	shl    $0x4,%rax
  80042028ac:	48 89 45 e8          	mov    %rax,-0x18(%rbp)
	boot_map_region(boot_pml4e, UPAGES, n, PADDR(pages), PTE_U);
  80042028b0:	48 b8 d8 c7 57 04 80 	movabs $0x800457c7d8,%rax
  80042028b7:	00 00 00 
  80042028ba:	48 8b 00             	mov    (%rax),%rax
  80042028bd:	48 89 45 e0          	mov    %rax,-0x20(%rbp)
  80042028c1:	48 b8 ff ff ff 03 80 	movabs $0x8003ffffff,%rax
  80042028c8:	00 00 00 
  80042028cb:	48 39 45 e0          	cmp    %rax,-0x20(%rbp)
  80042028cf:	77 32                	ja     8004202903 <x64_vm_init+0x1d6>
  80042028d1:	48 8b 45 e0          	mov    -0x20(%rbp),%rax
  80042028d5:	48 89 c1             	mov    %rax,%rcx
  80042028d8:	48 ba 78 4c 21 04 80 	movabs $0x8004214c78,%rdx
  80042028df:	00 00 00 
  80042028e2:	be 28 01 00 00       	mov    $0x128,%esi
  80042028e7:	48 bf 56 4b 21 04 80 	movabs $0x8004214b56,%rdi
  80042028ee:	00 00 00 
  80042028f1:	b8 00 00 00 00       	mov    $0x0,%eax
  80042028f6:	49 b8 a6 05 20 04 80 	movabs $0x80042005a6,%r8
  80042028fd:	00 00 00 
  8004202900:	41 ff d0             	callq  *%r8
  8004202903:	48 ba 00 00 00 fc 7f 	movabs $0xffffff7ffc000000,%rdx
  800420290a:	ff ff ff 
  800420290d:	48 8b 45 e0          	mov    -0x20(%rbp),%rax
  8004202911:	48 8d 0c 02          	lea    (%rdx,%rax,1),%rcx
  8004202915:	48 b8 c8 c7 57 04 80 	movabs $0x800457c7c8,%rax
  800420291c:	00 00 00 
  800420291f:	48 8b 00             	mov    (%rax),%rax
  8004202922:	48 8b 55 e8          	mov    -0x18(%rbp),%rdx
  8004202926:	41 b8 04 00 00 00    	mov    $0x4,%r8d
  800420292c:	48 be 00 00 a0 00 80 	movabs $0x8000a00000,%rsi
  8004202933:	00 00 00 
  8004202936:	48 89 c7             	mov    %rax,%rdi
  8004202939:	48 b8 32 38 20 04 80 	movabs $0x8004203832,%rax
  8004202940:	00 00 00 
  8004202943:	ff d0                	callq  *%rax
	// (ie. perm = PTE_U | PTE_P).
	// Permissions:
	//    - the new image at UENVS  -- kernel R, user R
	//    - envs itself -- kernel RW, user NONE
	// LAB 3: Your code here.
	n   = ROUNDUP(NENV*sizeof(struct Env), PGSIZE);
  8004202945:	48 c7 45 d8 00 10 00 	movq   $0x1000,-0x28(%rbp)
  800420294c:	00 
  800420294d:	48 8b 45 d8          	mov    -0x28(%rbp),%rax
  8004202951:	48 05 ff 9f 05 00    	add    $0x59fff,%rax
  8004202957:	48 89 45 d0          	mov    %rax,-0x30(%rbp)
  800420295b:	48 8b 45 d0          	mov    -0x30(%rbp),%rax
  800420295f:	ba 00 00 00 00       	mov    $0x0,%edx
  8004202964:	48 f7 75 d8          	divq   -0x28(%rbp)
  8004202968:	48 8b 45 d0          	mov    -0x30(%rbp),%rax
  800420296c:	48 29 d0             	sub    %rdx,%rax
  800420296f:	48 89 45 e8          	mov    %rax,-0x18(%rbp)
	boot_map_region(boot_pml4e, UENVS, n, PADDR(envs), PTE_U|PTE_P);
  8004202973:	48 b8 78 b2 57 04 80 	movabs $0x800457b278,%rax
  800420297a:	00 00 00 
  800420297d:	48 8b 00             	mov    (%rax),%rax
  8004202980:	48 89 45 c8          	mov    %rax,-0x38(%rbp)
  8004202984:	48 b8 ff ff ff 03 80 	movabs $0x8003ffffff,%rax
  800420298b:	00 00 00 
  800420298e:	48 39 45 c8          	cmp    %rax,-0x38(%rbp)
  8004202992:	77 32                	ja     80042029c6 <x64_vm_init+0x299>
  8004202994:	48 8b 45 c8          	mov    -0x38(%rbp),%rax
  8004202998:	48 89 c1             	mov    %rax,%rcx
  800420299b:	48 ba 78 4c 21 04 80 	movabs $0x8004214c78,%rdx
  80042029a2:	00 00 00 
  80042029a5:	be 32 01 00 00       	mov    $0x132,%esi
  80042029aa:	48 bf 56 4b 21 04 80 	movabs $0x8004214b56,%rdi
  80042029b1:	00 00 00 
  80042029b4:	b8 00 00 00 00       	mov    $0x0,%eax
  80042029b9:	49 b8 a6 05 20 04 80 	movabs $0x80042005a6,%r8
  80042029c0:	00 00 00 
  80042029c3:	41 ff d0             	callq  *%r8
  80042029c6:	48 ba 00 00 00 fc 7f 	movabs $0xffffff7ffc000000,%rdx
  80042029cd:	ff ff ff 
  80042029d0:	48 8b 45 c8          	mov    -0x38(%rbp),%rax
  80042029d4:	48 8d 0c 02          	lea    (%rdx,%rax,1),%rcx
  80042029d8:	48 b8 c8 c7 57 04 80 	movabs $0x800457c7c8,%rax
  80042029df:	00 00 00 
  80042029e2:	48 8b 00             	mov    (%rax),%rax
  80042029e5:	48 8b 55 e8          	mov    -0x18(%rbp),%rdx
  80042029e9:	41 b8 05 00 00 00    	mov    $0x5,%r8d
  80042029ef:	48 be 00 00 80 00 80 	movabs $0x8000800000,%rsi
  80042029f6:	00 00 00 
  80042029f9:	48 89 c7             	mov    %rax,%rdi
  80042029fc:	48 b8 32 38 20 04 80 	movabs $0x8004203832,%rax
  8004202a03:	00 00 00 
  8004202a06:	ff d0                	callq  *%rax
	//     * [KSTACKTOP-PTSIZE, KSTACKTOP-KSTKSIZE) -- not backed; so if
	//       the kernel overflows its stack, it will fault rather than
	//       overwrite memory.  Known as a "guard page".
	//     Permissions: kernel RW, user NONE
	// Your code goes here:
	boot_map_region(boot_pml4e, KSTACKTOP-KSTKSIZE, KSTKSIZE, PADDR(bootstack), PTE_W|PTE_P);
  8004202a08:	48 b8 00 80 21 04 80 	movabs $0x8004218000,%rax
  8004202a0f:	00 00 00 
  8004202a12:	48 89 45 c0          	mov    %rax,-0x40(%rbp)
  8004202a16:	48 b8 ff ff ff 03 80 	movabs $0x8003ffffff,%rax
  8004202a1d:	00 00 00 
  8004202a20:	48 39 45 c0          	cmp    %rax,-0x40(%rbp)
  8004202a24:	77 32                	ja     8004202a58 <x64_vm_init+0x32b>
  8004202a26:	48 8b 45 c0          	mov    -0x40(%rbp),%rax
  8004202a2a:	48 89 c1             	mov    %rax,%rcx
  8004202a2d:	48 ba 78 4c 21 04 80 	movabs $0x8004214c78,%rdx
  8004202a34:	00 00 00 
  8004202a37:	be 3f 01 00 00       	mov    $0x13f,%esi
  8004202a3c:	48 bf 56 4b 21 04 80 	movabs $0x8004214b56,%rdi
  8004202a43:	00 00 00 
  8004202a46:	b8 00 00 00 00       	mov    $0x0,%eax
  8004202a4b:	49 b8 a6 05 20 04 80 	movabs $0x80042005a6,%r8
  8004202a52:	00 00 00 
  8004202a55:	41 ff d0             	callq  *%r8
  8004202a58:	48 ba 00 00 00 fc 7f 	movabs $0xffffff7ffc000000,%rdx
  8004202a5f:	ff ff ff 
  8004202a62:	48 8b 45 c0          	mov    -0x40(%rbp),%rax
  8004202a66:	48 01 c2             	add    %rax,%rdx
  8004202a69:	48 b8 c8 c7 57 04 80 	movabs $0x800457c7c8,%rax
  8004202a70:	00 00 00 
  8004202a73:	48 8b 00             	mov    (%rax),%rax
  8004202a76:	41 b8 03 00 00 00    	mov    $0x3,%r8d
  8004202a7c:	48 89 d1             	mov    %rdx,%rcx
  8004202a7f:	ba 00 00 01 00       	mov    $0x10000,%edx
  8004202a84:	48 be 00 00 ff 03 80 	movabs $0x8003ff0000,%rsi
  8004202a8b:	00 00 00 
  8004202a8e:	48 89 c7             	mov    %rax,%rdi
  8004202a91:	48 b8 32 38 20 04 80 	movabs $0x8004203832,%rax
  8004202a98:	00 00 00 
  8004202a9b:	ff d0                	callq  *%rax
	// of physical pages to be npages.
	// Ie.  the VA range [KERNBASE, npages*PGSIZE) should map to
	//      the PA range [0, npages*PGSIZE)
	// Permissions: kernel RW, user NONE
	// Your code goes here:
	boot_map_region(boot_pml4e, KERNBASE, npages*PGSIZE, 0, PTE_W|PTE_P);
  8004202a9d:	48 b8 d0 c7 57 04 80 	movabs $0x800457c7d0,%rax
  8004202aa4:	00 00 00 
  8004202aa7:	48 8b 00             	mov    (%rax),%rax
  8004202aaa:	48 c1 e0 0c          	shl    $0xc,%rax
  8004202aae:	48 89 c2             	mov    %rax,%rdx
  8004202ab1:	48 b8 c8 c7 57 04 80 	movabs $0x800457c7c8,%rax
  8004202ab8:	00 00 00 
  8004202abb:	48 8b 00             	mov    (%rax),%rax
  8004202abe:	41 b8 03 00 00 00    	mov    $0x3,%r8d
  8004202ac4:	b9 00 00 00 00       	mov    $0x0,%ecx
  8004202ac9:	48 be 00 00 00 04 80 	movabs $0x8004000000,%rsi
  8004202ad0:	00 00 00 
  8004202ad3:	48 89 c7             	mov    %rax,%rdi
  8004202ad6:	48 b8 32 38 20 04 80 	movabs $0x8004203832,%rax
  8004202add:	00 00 00 
  8004202ae0:	ff d0                	callq  *%rax
	// Check that the initial page directory has been set up correctly.
	// Initialize the SMP-related parts of the memory map
	mem_init_mp();
  8004202ae2:	48 b8 fc 2b 20 04 80 	movabs $0x8004202bfc,%rax
  8004202ae9:	00 00 00 
  8004202aec:	ff d0                	callq  *%rax


	//////////////////////////////////////////////////////////////////////
	// Permissions: kernel RW, user NONE
	pdpe_t *pdpe = KADDR(PTE_ADDR(pml4e[1]));
  8004202aee:	48 8b 45 f8          	mov    -0x8(%rbp),%rax
  8004202af2:	48 83 c0 08          	add    $0x8,%rax
  8004202af6:	48 8b 00             	mov    (%rax),%rax
  8004202af9:	48 25 00 f0 ff ff    	and    $0xfffffffffffff000,%rax
  8004202aff:	48 89 45 b8          	mov    %rax,-0x48(%rbp)
  8004202b03:	48 8b 45 b8          	mov    -0x48(%rbp),%rax
  8004202b07:	48 c1 e8 0c          	shr    $0xc,%rax
  8004202b0b:	89 45 b4             	mov    %eax,-0x4c(%rbp)
  8004202b0e:	8b 55 b4             	mov    -0x4c(%rbp),%edx
  8004202b11:	48 b8 d0 c7 57 04 80 	movabs $0x800457c7d0,%rax
  8004202b18:	00 00 00 
  8004202b1b:	48 8b 00             	mov    (%rax),%rax
  8004202b1e:	48 39 c2             	cmp    %rax,%rdx
  8004202b21:	72 32                	jb     8004202b55 <x64_vm_init+0x428>
  8004202b23:	48 8b 45 b8          	mov    -0x48(%rbp),%rax
  8004202b27:	48 89 c1             	mov    %rax,%rcx
  8004202b2a:	48 ba c8 4a 21 04 80 	movabs $0x8004214ac8,%rdx
  8004202b31:	00 00 00 
  8004202b34:	be 50 01 00 00       	mov    $0x150,%esi
  8004202b39:	48 bf 56 4b 21 04 80 	movabs $0x8004214b56,%rdi
  8004202b40:	00 00 00 
  8004202b43:	b8 00 00 00 00       	mov    $0x0,%eax
  8004202b48:	49 b8 a6 05 20 04 80 	movabs $0x80042005a6,%r8
  8004202b4f:	00 00 00 
  8004202b52:	41 ff d0             	callq  *%r8
  8004202b55:	48 ba 00 00 00 04 80 	movabs $0x8004000000,%rdx
  8004202b5c:	00 00 00 
  8004202b5f:	48 8b 45 b8          	mov    -0x48(%rbp),%rax
  8004202b63:	48 01 d0             	add    %rdx,%rax
  8004202b66:	48 89 45 a8          	mov    %rax,-0x58(%rbp)
	pde_t *pgdir = KADDR(PTE_ADDR(pdpe[0]));
  8004202b6a:	48 8b 45 a8          	mov    -0x58(%rbp),%rax
  8004202b6e:	48 8b 00             	mov    (%rax),%rax
  8004202b71:	48 25 00 f0 ff ff    	and    $0xfffffffffffff000,%rax
  8004202b77:	48 89 45 a0          	mov    %rax,-0x60(%rbp)
  8004202b7b:	48 8b 45 a0          	mov    -0x60(%rbp),%rax
  8004202b7f:	48 c1 e8 0c          	shr    $0xc,%rax
  8004202b83:	89 45 9c             	mov    %eax,-0x64(%rbp)
  8004202b86:	8b 55 9c             	mov    -0x64(%rbp),%edx
  8004202b89:	48 b8 d0 c7 57 04 80 	movabs $0x800457c7d0,%rax
  8004202b90:	00 00 00 
  8004202b93:	48 8b 00             	mov    (%rax),%rax
  8004202b96:	48 39 c2             	cmp    %rax,%rdx
  8004202b99:	72 32                	jb     8004202bcd <x64_vm_init+0x4a0>
  8004202b9b:	48 8b 45 a0          	mov    -0x60(%rbp),%rax
  8004202b9f:	48 89 c1             	mov    %rax,%rcx
  8004202ba2:	48 ba c8 4a 21 04 80 	movabs $0x8004214ac8,%rdx
  8004202ba9:	00 00 00 
  8004202bac:	be 51 01 00 00       	mov    $0x151,%esi
  8004202bb1:	48 bf 56 4b 21 04 80 	movabs $0x8004214b56,%rdi
  8004202bb8:	00 00 00 
  8004202bbb:	b8 00 00 00 00       	mov    $0x0,%eax
  8004202bc0:	49 b8 a6 05 20 04 80 	movabs $0x80042005a6,%r8
  8004202bc7:	00 00 00 
  8004202bca:	41 ff d0             	callq  *%r8
  8004202bcd:	48 ba 00 00 00 04 80 	movabs $0x8004000000,%rdx
  8004202bd4:	00 00 00 
  8004202bd7:	48 8b 45 a0          	mov    -0x60(%rbp),%rax
  8004202bdb:	48 01 d0             	add    %rdx,%rax
  8004202bde:	48 89 45 90          	mov    %rax,-0x70(%rbp)
	lcr3(boot_cr3);
  8004202be2:	48 b8 c0 c7 57 04 80 	movabs $0x800457c7c0,%rax
  8004202be9:	00 00 00 
  8004202bec:	48 8b 00             	mov    (%rax),%rax
  8004202bef:	48 89 45 88          	mov    %rax,-0x78(%rbp)
	__asm __volatile("movq %0,%%cr3" : : "r" (val));
  8004202bf3:	48 8b 45 88          	mov    -0x78(%rbp),%rax
  8004202bf7:	0f 22 d8             	mov    %rax,%cr3
}
  8004202bfa:	c9                   	leaveq 
  8004202bfb:	c3                   	retq   

0000008004202bfc <mem_init_mp>:
// Modify mappings in boot_pml4e to support SMP
//   - Map the per-CPU stacks in the region [KSTACKTOP-PTSIZE, KSTACKTOP)
//
static void
mem_init_mp(void)
{
  8004202bfc:	55                   	push   %rbp
  8004202bfd:	48 89 e5             	mov    %rsp,%rbp
  8004202c00:	48 83 ec 20          	sub    $0x20,%rsp
	//
	// LAB 4: Your code here:

	int i;
	uintptr_t kstacktop;
	for (i = 0; i < NCPU; i++) {
  8004202c04:	c7 45 fc 00 00 00 00 	movl   $0x0,-0x4(%rbp)
  8004202c0b:	e9 cb 00 00 00       	jmpq   8004202cdb <mem_init_mp+0xdf>
		kstacktop = KSTACKTOP - (KSTKSIZE + KSTKGAP) * i;
  8004202c10:	8b 55 fc             	mov    -0x4(%rbp),%edx
  8004202c13:	89 d0                	mov    %edx,%eax
  8004202c15:	01 c0                	add    %eax,%eax
  8004202c17:	01 d0                	add    %edx,%eax
  8004202c19:	c1 e0 0f             	shl    $0xf,%eax
  8004202c1c:	48 98                	cltq   
  8004202c1e:	48 ba 00 00 00 04 80 	movabs $0x8004000000,%rdx
  8004202c25:	00 00 00 
  8004202c28:	48 29 c2             	sub    %rax,%rdx
  8004202c2b:	48 89 d0             	mov    %rdx,%rax
  8004202c2e:	48 89 45 f0          	mov    %rax,-0x10(%rbp)
		boot_map_region(boot_pml4e, kstacktop - KSTKSIZE, KSTKSIZE,
				PADDR(percpu_kstacks[i]), PTE_P|PTE_W);
  8004202c32:	8b 45 fc             	mov    -0x4(%rbp),%eax
  8004202c35:	48 98                	cltq   
  8004202c37:	48 c1 e0 10          	shl    $0x10,%rax
  8004202c3b:	48 89 c2             	mov    %rax,%rdx
  8004202c3e:	48 b8 00 f0 57 04 80 	movabs $0x800457f000,%rax
  8004202c45:	00 00 00 
  8004202c48:	48 01 d0             	add    %rdx,%rax
  8004202c4b:	48 89 45 e8          	mov    %rax,-0x18(%rbp)
  8004202c4f:	48 b8 ff ff ff 03 80 	movabs $0x8003ffffff,%rax
  8004202c56:	00 00 00 
  8004202c59:	48 39 45 e8          	cmp    %rax,-0x18(%rbp)
  8004202c5d:	77 32                	ja     8004202c91 <mem_init_mp+0x95>
  8004202c5f:	48 8b 45 e8          	mov    -0x18(%rbp),%rax
  8004202c63:	48 89 c1             	mov    %rax,%rcx
  8004202c66:	48 ba 78 4c 21 04 80 	movabs $0x8004214c78,%rdx
  8004202c6d:	00 00 00 
  8004202c70:	be 72 01 00 00       	mov    $0x172,%esi
  8004202c75:	48 bf 56 4b 21 04 80 	movabs $0x8004214b56,%rdi
  8004202c7c:	00 00 00 
  8004202c7f:	b8 00 00 00 00       	mov    $0x0,%eax
  8004202c84:	49 b8 a6 05 20 04 80 	movabs $0x80042005a6,%r8
  8004202c8b:	00 00 00 
  8004202c8e:	41 ff d0             	callq  *%r8
  8004202c91:	48 ba 00 00 00 fc 7f 	movabs $0xffffff7ffc000000,%rdx
  8004202c98:	ff ff ff 
  8004202c9b:	48 8b 45 e8          	mov    -0x18(%rbp),%rax
  8004202c9f:	48 01 c2             	add    %rax,%rdx
		boot_map_region(boot_pml4e, kstacktop - KSTKSIZE, KSTKSIZE,
  8004202ca2:	48 8b 45 f0          	mov    -0x10(%rbp),%rax
  8004202ca6:	48 8d b0 00 00 ff ff 	lea    -0x10000(%rax),%rsi
  8004202cad:	48 b8 c8 c7 57 04 80 	movabs $0x800457c7c8,%rax
  8004202cb4:	00 00 00 
  8004202cb7:	48 8b 00             	mov    (%rax),%rax
  8004202cba:	41 b8 03 00 00 00    	mov    $0x3,%r8d
  8004202cc0:	48 89 d1             	mov    %rdx,%rcx
  8004202cc3:	ba 00 00 01 00       	mov    $0x10000,%edx
  8004202cc8:	48 89 c7             	mov    %rax,%rdi
  8004202ccb:	48 b8 32 38 20 04 80 	movabs $0x8004203832,%rax
  8004202cd2:	00 00 00 
  8004202cd5:	ff d0                	callq  *%rax
	for (i = 0; i < NCPU; i++) {
  8004202cd7:	83 45 fc 01          	addl   $0x1,-0x4(%rbp)
  8004202cdb:	83 7d fc 03          	cmpl   $0x3,-0x4(%rbp)
  8004202cdf:	0f 8e 2b ff ff ff    	jle    8004202c10 <mem_init_mp+0x14>
	}
}
  8004202ce5:	c9                   	leaveq 
  8004202ce6:	c3                   	retq   

0000008004202ce7 <page_init>:
// allocator functions below to allocate and deallocate physical
// memory via the page_free_list.
//
void
page_init(void)
{
  8004202ce7:	55                   	push   %rbp
  8004202ce8:	48 89 e5             	mov    %rsp,%rbp
  8004202ceb:	48 83 ec 50          	sub    $0x50,%rsp
	// LAB 4:
	// Change your code to mark the physical page at MPENTRY_PADDR
	// as in use

	void *nextfree = boot_alloc(0);
  8004202cef:	bf 00 00 00 00       	mov    $0x0,%edi
  8004202cf4:	48 b8 e5 25 20 04 80 	movabs $0x80042025e5,%rax
  8004202cfb:	00 00 00 
  8004202cfe:	ff d0                	callq  *%rax
  8004202d00:	48 89 45 e0          	mov    %rax,-0x20(%rbp)
	size_t i;
	int inuse;
	struct PageInfo* last = NULL;
  8004202d04:	48 c7 45 e8 00 00 00 	movq   $0x0,-0x18(%rbp)
  8004202d0b:	00 
	for (i = 0; i < npages; i++) {
  8004202d0c:	48 c7 45 f8 00 00 00 	movq   $0x0,-0x8(%rbp)
  8004202d13:	00 
  8004202d14:	e9 65 02 00 00       	jmpq   8004202f7e <page_init+0x297>
		// Off-limits until proven otherwise.
		inuse = 1;
  8004202d19:	c7 45 f4 01 00 00 00 	movl   $0x1,-0xc(%rbp)

		// The bottom basemem bytes are free except page 0.
		if (i != 0 && i < npages_basemem)
  8004202d20:	48 83 7d f8 00       	cmpq   $0x0,-0x8(%rbp)
  8004202d25:	74 1a                	je     8004202d41 <page_init+0x5a>
  8004202d27:	48 b8 50 b2 57 04 80 	movabs $0x800457b250,%rax
  8004202d2e:	00 00 00 
  8004202d31:	48 8b 00             	mov    (%rax),%rax
  8004202d34:	48 39 45 f8          	cmp    %rax,-0x8(%rbp)
  8004202d38:	73 07                	jae    8004202d41 <page_init+0x5a>
			inuse = 0;
  8004202d3a:	c7 45 f4 00 00 00 00 	movl   $0x0,-0xc(%rbp)
		// Mark physical page at MPENTRY_PADDR as in use
		if (i == MPENTRY_PADDR / PGSIZE)
  8004202d41:	48 83 7d f8 07       	cmpq   $0x7,-0x8(%rbp)
  8004202d46:	75 07                	jne    8004202d4f <page_init+0x68>
			inuse = 1;
  8004202d48:	c7 45 f4 01 00 00 00 	movl   $0x1,-0xc(%rbp)

		// The IO hole and the kernel are non empty but
		// The memory past the kernel is free.
		if (i >= PADDR(nextfree) / PGSIZE)
  8004202d4f:	48 8b 45 e0          	mov    -0x20(%rbp),%rax
  8004202d53:	48 89 45 d8          	mov    %rax,-0x28(%rbp)
  8004202d57:	48 b8 ff ff ff 03 80 	movabs $0x8003ffffff,%rax
  8004202d5e:	00 00 00 
  8004202d61:	48 39 45 d8          	cmp    %rax,-0x28(%rbp)
  8004202d65:	77 32                	ja     8004202d99 <page_init+0xb2>
  8004202d67:	48 8b 45 d8          	mov    -0x28(%rbp),%rax
  8004202d6b:	48 89 c1             	mov    %rax,%rcx
  8004202d6e:	48 ba 78 4c 21 04 80 	movabs $0x8004214c78,%rdx
  8004202d75:	00 00 00 
  8004202d78:	be 9a 01 00 00       	mov    $0x19a,%esi
  8004202d7d:	48 bf 56 4b 21 04 80 	movabs $0x8004214b56,%rdi
  8004202d84:	00 00 00 
  8004202d87:	b8 00 00 00 00       	mov    $0x0,%eax
  8004202d8c:	49 b8 a6 05 20 04 80 	movabs $0x80042005a6,%r8
  8004202d93:	00 00 00 
  8004202d96:	41 ff d0             	callq  *%r8
  8004202d99:	48 ba 00 00 00 fc 7f 	movabs $0xffffff7ffc000000,%rdx
  8004202da0:	ff ff ff 
  8004202da3:	48 8b 45 d8          	mov    -0x28(%rbp),%rax
  8004202da7:	48 01 d0             	add    %rdx,%rax
  8004202daa:	48 c1 e8 0c          	shr    $0xc,%rax
  8004202dae:	48 3b 45 f8          	cmp    -0x8(%rbp),%rax
  8004202db2:	77 07                	ja     8004202dbb <page_init+0xd4>
			inuse = 0;
  8004202db4:	c7 45 f4 00 00 00 00 	movl   $0x0,-0xc(%rbp)

		uint64_t va = KERNBASE + i*PGSIZE;
  8004202dbb:	48 8b 45 f8          	mov    -0x8(%rbp),%rax
  8004202dbf:	48 05 00 40 00 08    	add    $0x8004000,%rax
  8004202dc5:	48 c1 e0 0c          	shl    $0xc,%rax
  8004202dc9:	48 89 45 d0          	mov    %rax,-0x30(%rbp)
		if (va>=BOOT_PAGE_TABLE_START && va<BOOT_PAGE_TABLE_END)
  8004202dcd:	48 b8 00 20 10 00 00 	movabs $0x102000,%rax
  8004202dd4:	00 00 00 
  8004202dd7:	48 89 45 c8          	mov    %rax,-0x38(%rbp)
  8004202ddb:	48 8b 45 c8          	mov    -0x38(%rbp),%rax
  8004202ddf:	48 c1 e8 0c          	shr    $0xc,%rax
  8004202de3:	89 45 c4             	mov    %eax,-0x3c(%rbp)
  8004202de6:	8b 55 c4             	mov    -0x3c(%rbp),%edx
  8004202de9:	48 b8 d0 c7 57 04 80 	movabs $0x800457c7d0,%rax
  8004202df0:	00 00 00 
  8004202df3:	48 8b 00             	mov    (%rax),%rax
  8004202df6:	48 39 c2             	cmp    %rax,%rdx
  8004202df9:	72 32                	jb     8004202e2d <page_init+0x146>
  8004202dfb:	48 8b 45 c8          	mov    -0x38(%rbp),%rax
  8004202dff:	48 89 c1             	mov    %rax,%rcx
  8004202e02:	48 ba c8 4a 21 04 80 	movabs $0x8004214ac8,%rdx
  8004202e09:	00 00 00 
  8004202e0c:	be 9e 01 00 00       	mov    $0x19e,%esi
  8004202e11:	48 bf 56 4b 21 04 80 	movabs $0x8004214b56,%rdi
  8004202e18:	00 00 00 
  8004202e1b:	b8 00 00 00 00       	mov    $0x0,%eax
  8004202e20:	49 b8 a6 05 20 04 80 	movabs $0x80042005a6,%r8
  8004202e27:	00 00 00 
  8004202e2a:	41 ff d0             	callq  *%r8
  8004202e2d:	48 ba 00 00 00 04 80 	movabs $0x8004000000,%rdx
  8004202e34:	00 00 00 
  8004202e37:	48 8b 45 c8          	mov    -0x38(%rbp),%rax
  8004202e3b:	48 01 d0             	add    %rdx,%rax
  8004202e3e:	48 3b 45 d0          	cmp    -0x30(%rbp),%rax
  8004202e42:	0f 87 84 00 00 00    	ja     8004202ecc <page_init+0x1e5>
  8004202e48:	48 b8 00 20 10 00 00 	movabs $0x102000,%rax
  8004202e4f:	00 00 00 
  8004202e52:	48 05 00 50 00 00    	add    $0x5000,%rax
  8004202e58:	48 89 45 b8          	mov    %rax,-0x48(%rbp)
  8004202e5c:	48 8b 45 b8          	mov    -0x48(%rbp),%rax
  8004202e60:	48 c1 e8 0c          	shr    $0xc,%rax
  8004202e64:	89 45 b4             	mov    %eax,-0x4c(%rbp)
  8004202e67:	8b 55 b4             	mov    -0x4c(%rbp),%edx
  8004202e6a:	48 b8 d0 c7 57 04 80 	movabs $0x800457c7d0,%rax
  8004202e71:	00 00 00 
  8004202e74:	48 8b 00             	mov    (%rax),%rax
  8004202e77:	48 39 c2             	cmp    %rax,%rdx
  8004202e7a:	72 32                	jb     8004202eae <page_init+0x1c7>
  8004202e7c:	48 8b 45 b8          	mov    -0x48(%rbp),%rax
  8004202e80:	48 89 c1             	mov    %rax,%rcx
  8004202e83:	48 ba c8 4a 21 04 80 	movabs $0x8004214ac8,%rdx
  8004202e8a:	00 00 00 
  8004202e8d:	be 9e 01 00 00       	mov    $0x19e,%esi
  8004202e92:	48 bf 56 4b 21 04 80 	movabs $0x8004214b56,%rdi
  8004202e99:	00 00 00 
  8004202e9c:	b8 00 00 00 00       	mov    $0x0,%eax
  8004202ea1:	49 b8 a6 05 20 04 80 	movabs $0x80042005a6,%r8
  8004202ea8:	00 00 00 
  8004202eab:	41 ff d0             	callq  *%r8
  8004202eae:	48 ba 00 00 00 04 80 	movabs $0x8004000000,%rdx
  8004202eb5:	00 00 00 
  8004202eb8:	48 8b 45 b8          	mov    -0x48(%rbp),%rax
  8004202ebc:	48 01 d0             	add    %rdx,%rax
  8004202ebf:	48 3b 45 d0          	cmp    -0x30(%rbp),%rax
  8004202ec3:	76 07                	jbe    8004202ecc <page_init+0x1e5>
			inuse = 1;
  8004202ec5:	c7 45 f4 01 00 00 00 	movl   $0x1,-0xc(%rbp)

		pages[i].pp_ref = inuse;
  8004202ecc:	48 b8 d8 c7 57 04 80 	movabs $0x800457c7d8,%rax
  8004202ed3:	00 00 00 
  8004202ed6:	48 8b 00             	mov    (%rax),%rax
  8004202ed9:	48 8b 55 f8          	mov    -0x8(%rbp),%rdx
  8004202edd:	48 c1 e2 04          	shl    $0x4,%rdx
  8004202ee1:	48 01 d0             	add    %rdx,%rax
  8004202ee4:	8b 55 f4             	mov    -0xc(%rbp),%edx
  8004202ee7:	66 89 50 08          	mov    %dx,0x8(%rax)
		pages[i].pp_link = NULL;
  8004202eeb:	48 b8 d8 c7 57 04 80 	movabs $0x800457c7d8,%rax
  8004202ef2:	00 00 00 
  8004202ef5:	48 8b 00             	mov    (%rax),%rax
  8004202ef8:	48 8b 55 f8          	mov    -0x8(%rbp),%rdx
  8004202efc:	48 c1 e2 04          	shl    $0x4,%rdx
  8004202f00:	48 01 d0             	add    %rdx,%rax
  8004202f03:	48 c7 00 00 00 00 00 	movq   $0x0,(%rax)
		if (!inuse) {
  8004202f0a:	83 7d f4 00          	cmpl   $0x0,-0xc(%rbp)
  8004202f0e:	75 69                	jne    8004202f79 <page_init+0x292>
			if (last)
  8004202f10:	48 83 7d e8 00       	cmpq   $0x0,-0x18(%rbp)
  8004202f15:	74 21                	je     8004202f38 <page_init+0x251>
				last->pp_link = &pages[i];
  8004202f17:	48 b8 d8 c7 57 04 80 	movabs $0x800457c7d8,%rax
  8004202f1e:	00 00 00 
  8004202f21:	48 8b 00             	mov    (%rax),%rax
  8004202f24:	48 8b 55 f8          	mov    -0x8(%rbp),%rdx
  8004202f28:	48 c1 e2 04          	shl    $0x4,%rdx
  8004202f2c:	48 01 c2             	add    %rax,%rdx
  8004202f2f:	48 8b 45 e8          	mov    -0x18(%rbp),%rax
  8004202f33:	48 89 10             	mov    %rdx,(%rax)
  8004202f36:	eb 25                	jmp    8004202f5d <page_init+0x276>
			else
				page_free_list = &pages[i];
  8004202f38:	48 b8 d8 c7 57 04 80 	movabs $0x800457c7d8,%rax
  8004202f3f:	00 00 00 
  8004202f42:	48 8b 00             	mov    (%rax),%rax
  8004202f45:	48 8b 55 f8          	mov    -0x8(%rbp),%rdx
  8004202f49:	48 c1 e2 04          	shl    $0x4,%rdx
  8004202f4d:	48 01 c2             	add    %rax,%rdx
  8004202f50:	48 b8 58 b2 57 04 80 	movabs $0x800457b258,%rax
  8004202f57:	00 00 00 
  8004202f5a:	48 89 10             	mov    %rdx,(%rax)
			last = &pages[i];
  8004202f5d:	48 b8 d8 c7 57 04 80 	movabs $0x800457c7d8,%rax
  8004202f64:	00 00 00 
  8004202f67:	48 8b 00             	mov    (%rax),%rax
  8004202f6a:	48 8b 55 f8          	mov    -0x8(%rbp),%rdx
  8004202f6e:	48 c1 e2 04          	shl    $0x4,%rdx
  8004202f72:	48 01 d0             	add    %rdx,%rax
  8004202f75:	48 89 45 e8          	mov    %rax,-0x18(%rbp)
	for (i = 0; i < npages; i++) {
  8004202f79:	48 83 45 f8 01       	addq   $0x1,-0x8(%rbp)
  8004202f7e:	48 b8 d0 c7 57 04 80 	movabs $0x800457c7d0,%rax
  8004202f85:	00 00 00 
  8004202f88:	48 8b 00             	mov    (%rax),%rax
  8004202f8b:	48 39 45 f8          	cmp    %rax,-0x8(%rbp)
  8004202f8f:	0f 82 84 fd ff ff    	jb     8004202d19 <page_init+0x32>
	// NB: DO NOT actually touch the physical memory corresponding to
	// free pages!
	// NB: Make sure you preserve the direction in which your page_free_list
	// is constructed
	// NB: Remember to mark the memory used for initial boot page table i.e (va>=BOOT_PAGE_TABLE_START && va < BOOT_PAGE_TABLE_END) as in-use (not free)
}
  8004202f95:	c9                   	leaveq 
  8004202f96:	c3                   	retq   

0000008004202f97 <page_alloc>:
// Returns NULL if out of free memory.
//
// Hint: use page2kva and memset
struct PageInfo *
page_alloc(int alloc_flags)
{
  8004202f97:	55                   	push   %rbp
  8004202f98:	48 89 e5             	mov    %rsp,%rbp
  8004202f9b:	48 83 ec 20          	sub    $0x20,%rsp
  8004202f9f:	89 7d ec             	mov    %edi,-0x14(%rbp)
	// Fill this function in
	struct PageInfo *pp = page_free_list;
  8004202fa2:	48 b8 58 b2 57 04 80 	movabs $0x800457b258,%rax
  8004202fa9:	00 00 00 
  8004202fac:	48 8b 00             	mov    (%rax),%rax
  8004202faf:	48 89 45 f8          	mov    %rax,-0x8(%rbp)
	if (pp) {
  8004202fb3:	48 83 7d f8 00       	cmpq   $0x0,-0x8(%rbp)
  8004202fb8:	74 5e                	je     8004203018 <page_alloc+0x81>
		//cprintf("alloc new page: struct page %x va %x pa %x \n", pp, page2kva(pp), page2pa(pp));
		page_free_list = page_free_list->pp_link;
  8004202fba:	48 b8 58 b2 57 04 80 	movabs $0x800457b258,%rax
  8004202fc1:	00 00 00 
  8004202fc4:	48 8b 00             	mov    (%rax),%rax
  8004202fc7:	48 8b 10             	mov    (%rax),%rdx
  8004202fca:	48 b8 58 b2 57 04 80 	movabs $0x800457b258,%rax
  8004202fd1:	00 00 00 
  8004202fd4:	48 89 10             	mov    %rdx,(%rax)
		pp->pp_link = NULL;
  8004202fd7:	48 8b 45 f8          	mov    -0x8(%rbp),%rax
  8004202fdb:	48 c7 00 00 00 00 00 	movq   $0x0,(%rax)
		if (alloc_flags & ALLOC_ZERO)
  8004202fe2:	8b 45 ec             	mov    -0x14(%rbp),%eax
  8004202fe5:	83 e0 01             	and    $0x1,%eax
  8004202fe8:	85 c0                	test   %eax,%eax
  8004202fea:	74 2c                	je     8004203018 <page_alloc+0x81>
			memset(page2kva(pp), 0, PGSIZE);
  8004202fec:	48 8b 45 f8          	mov    -0x8(%rbp),%rax
  8004202ff0:	48 89 c7             	mov    %rax,%rdi
  8004202ff3:	48 b8 c0 1c 20 04 80 	movabs $0x8004201cc0,%rax
  8004202ffa:	00 00 00 
  8004202ffd:	ff d0                	callq  *%rax
  8004202fff:	ba 00 10 00 00       	mov    $0x1000,%edx
  8004203004:	be 00 00 00 00       	mov    $0x0,%esi
  8004203009:	48 89 c7             	mov    %rax,%rdi
  800420300c:	48 b8 e8 c4 20 04 80 	movabs $0x800420c4e8,%rax
  8004203013:	00 00 00 
  8004203016:	ff d0                	callq  *%rax
	}
	return pp;
  8004203018:	48 8b 45 f8          	mov    -0x8(%rbp),%rax
}
  800420301c:	c9                   	leaveq 
  800420301d:	c3                   	retq   

000000800420301e <page_initpp>:
// The result has null links and 0 refcount.
// Note that the corresponding physical page is NOT initialized!
//
static void
page_initpp(struct PageInfo *pp)
{
  800420301e:	55                   	push   %rbp
  800420301f:	48 89 e5             	mov    %rsp,%rbp
  8004203022:	48 83 ec 10          	sub    $0x10,%rsp
  8004203026:	48 89 7d f8          	mov    %rdi,-0x8(%rbp)
	memset(pp, 0, sizeof(*pp));
  800420302a:	48 8b 45 f8          	mov    -0x8(%rbp),%rax
  800420302e:	ba 10 00 00 00       	mov    $0x10,%edx
  8004203033:	be 00 00 00 00       	mov    $0x0,%esi
  8004203038:	48 89 c7             	mov    %rax,%rdi
  800420303b:	48 b8 e8 c4 20 04 80 	movabs $0x800420c4e8,%rax
  8004203042:	00 00 00 
  8004203045:	ff d0                	callq  *%rax
}
  8004203047:	c9                   	leaveq 
  8004203048:	c3                   	retq   

0000008004203049 <page_free>:
// Return a page to the free list.
// (This function should only be called when pp->pp_ref reaches 0.)
//
void
page_free(struct PageInfo *pp)
{
  8004203049:	55                   	push   %rbp
  800420304a:	48 89 e5             	mov    %rsp,%rbp
  800420304d:	48 83 ec 10          	sub    $0x10,%rsp
  8004203051:	48 89 7d f8          	mov    %rdi,-0x8(%rbp)
	// Fill this function in
	// Hint: You may want to panic if pp->pp_ref is nonzero or
	// pp->pp_link is not NULL.
	if (pp->pp_ref || pp->pp_link) {
  8004203055:	48 8b 45 f8          	mov    -0x8(%rbp),%rax
  8004203059:	0f b7 40 08          	movzwl 0x8(%rax),%eax
  800420305d:	66 85 c0             	test   %ax,%ax
  8004203060:	75 0c                	jne    800420306e <page_free+0x25>
  8004203062:	48 8b 45 f8          	mov    -0x8(%rbp),%rax
  8004203066:	48 8b 00             	mov    (%rax),%rax
  8004203069:	48 85 c0             	test   %rax,%rax
  800420306c:	74 2c                	je     800420309a <page_free+0x51>
		warn("page_free: attempt to free mapped page");
  800420306e:	48 ba a0 4c 21 04 80 	movabs $0x8004214ca0,%rdx
  8004203075:	00 00 00 
  8004203078:	be f3 01 00 00       	mov    $0x1f3,%esi
  800420307d:	48 bf 56 4b 21 04 80 	movabs $0x8004214b56,%rdi
  8004203084:	00 00 00 
  8004203087:	b8 00 00 00 00       	mov    $0x0,%eax
  800420308c:	48 b9 e2 06 20 04 80 	movabs $0x80042006e2,%rcx
  8004203093:	00 00 00 
  8004203096:	ff d1                	callq  *%rcx
		return;		/* be conservative and assume page is still used */
  8004203098:	eb 2f                	jmp    80042030c9 <page_free+0x80>
	}
	pp->pp_link = page_free_list;
  800420309a:	48 b8 58 b2 57 04 80 	movabs $0x800457b258,%rax
  80042030a1:	00 00 00 
  80042030a4:	48 8b 10             	mov    (%rax),%rdx
  80042030a7:	48 8b 45 f8          	mov    -0x8(%rbp),%rax
  80042030ab:	48 89 10             	mov    %rdx,(%rax)
	page_free_list = pp;
  80042030ae:	48 b8 58 b2 57 04 80 	movabs $0x800457b258,%rax
  80042030b5:	00 00 00 
  80042030b8:	48 8b 55 f8          	mov    -0x8(%rbp),%rdx
  80042030bc:	48 89 10             	mov    %rdx,(%rax)
	pp->pp_ref = 0;
  80042030bf:	48 8b 45 f8          	mov    -0x8(%rbp),%rax
  80042030c3:	66 c7 40 08 00 00    	movw   $0x0,0x8(%rax)
}
  80042030c9:	c9                   	leaveq 
  80042030ca:	c3                   	retq   

00000080042030cb <page_decref>:
// Decrement the reference count on a page,
// freeing it if there are no more refs.
//
void
page_decref(struct PageInfo* pp)
{
  80042030cb:	55                   	push   %rbp
  80042030cc:	48 89 e5             	mov    %rsp,%rbp
  80042030cf:	48 83 ec 10          	sub    $0x10,%rsp
  80042030d3:	48 89 7d f8          	mov    %rdi,-0x8(%rbp)
	if (--pp->pp_ref == 0)
  80042030d7:	48 8b 45 f8          	mov    -0x8(%rbp),%rax
  80042030db:	0f b7 40 08          	movzwl 0x8(%rax),%eax
  80042030df:	8d 50 ff             	lea    -0x1(%rax),%edx
  80042030e2:	48 8b 45 f8          	mov    -0x8(%rbp),%rax
  80042030e6:	66 89 50 08          	mov    %dx,0x8(%rax)
  80042030ea:	48 8b 45 f8          	mov    -0x8(%rbp),%rax
  80042030ee:	0f b7 40 08          	movzwl 0x8(%rax),%eax
  80042030f2:	66 85 c0             	test   %ax,%ax
  80042030f5:	75 13                	jne    800420310a <page_decref+0x3f>
		page_free(pp);
  80042030f7:	48 8b 45 f8          	mov    -0x8(%rbp),%rax
  80042030fb:	48 89 c7             	mov    %rax,%rdi
  80042030fe:	48 b8 49 30 20 04 80 	movabs $0x8004203049,%rax
  8004203105:	00 00 00 
  8004203108:	ff d0                	callq  *%rax
}
  800420310a:	c9                   	leaveq 
  800420310b:	c3                   	retq   

000000800420310c <pml4e_walk>:
// table, page directory,page directory pointer and pml4 entries.
//

pte_t *
pml4e_walk(pml4e_t *pml4e, const void *va, int create)
{
  800420310c:	55                   	push   %rbp
  800420310d:	48 89 e5             	mov    %rsp,%rbp
  8004203110:	53                   	push   %rbx
  8004203111:	48 83 ec 68          	sub    $0x68,%rsp
  8004203115:	48 89 7d a8          	mov    %rdi,-0x58(%rbp)
  8004203119:	48 89 75 a0          	mov    %rsi,-0x60(%rbp)
  800420311d:	89 55 9c             	mov    %edx,-0x64(%rbp)
	if (pml4e) {
  8004203120:	48 83 7d a8 00       	cmpq   $0x0,-0x58(%rbp)
  8004203125:	0f 84 54 02 00 00    	je     800420337f <pml4e_walk+0x273>
		pdpe_t *pdpe  = (pdpe_t *)pml4e [PML4(va)];
  800420312b:	48 8b 45 a0          	mov    -0x60(%rbp),%rax
  800420312f:	48 c1 e8 27          	shr    $0x27,%rax
  8004203133:	25 ff 01 00 00       	and    $0x1ff,%eax
  8004203138:	48 8d 14 c5 00 00 00 	lea    0x0(,%rax,8),%rdx
  800420313f:	00 
  8004203140:	48 8b 45 a8          	mov    -0x58(%rbp),%rax
  8004203144:	48 01 d0             	add    %rdx,%rax
  8004203147:	48 8b 00             	mov    (%rax),%rax
  800420314a:	48 89 45 e8          	mov    %rax,-0x18(%rbp)
		if (!((physaddr_t)pdpe & PTE_P) && create) {
  800420314e:	48 8b 45 e8          	mov    -0x18(%rbp),%rax
  8004203152:	83 e0 01             	and    $0x1,%eax
  8004203155:	48 85 c0             	test   %rax,%rax
  8004203158:	0f 85 82 01 00 00    	jne    80042032e0 <pml4e_walk+0x1d4>
  800420315e:	83 7d 9c 00          	cmpl   $0x0,-0x64(%rbp)
  8004203162:	0f 84 78 01 00 00    	je     80042032e0 <pml4e_walk+0x1d4>
			struct PageInfo *page   = NULL;
  8004203168:	48 c7 45 e0 00 00 00 	movq   $0x0,-0x20(%rbp)
  800420316f:	00 
			if ((page = page_alloc(ALLOC_ZERO))) {
  8004203170:	bf 01 00 00 00       	mov    $0x1,%edi
  8004203175:	48 b8 97 2f 20 04 80 	movabs $0x8004202f97,%rax
  800420317c:	00 00 00 
  800420317f:	ff d0                	callq  *%rax
  8004203181:	48 89 45 e0          	mov    %rax,-0x20(%rbp)
  8004203185:	48 83 7d e0 00       	cmpq   $0x0,-0x20(%rbp)
  800420318a:	0f 84 46 01 00 00    	je     80042032d6 <pml4e_walk+0x1ca>
				page->pp_ref    += 1;
  8004203190:	48 8b 45 e0          	mov    -0x20(%rbp),%rax
  8004203194:	0f b7 40 08          	movzwl 0x8(%rax),%eax
  8004203198:	8d 50 01             	lea    0x1(%rax),%edx
  800420319b:	48 8b 45 e0          	mov    -0x20(%rbp),%rax
  800420319f:	66 89 50 08          	mov    %dx,0x8(%rax)
				pml4e [PML4(va)] = page2pa(page)|PTE_U|PTE_W|PTE_P;
  80042031a3:	48 8b 45 a0          	mov    -0x60(%rbp),%rax
  80042031a7:	48 c1 e8 27          	shr    $0x27,%rax
  80042031ab:	25 ff 01 00 00       	and    $0x1ff,%eax
  80042031b0:	48 8d 14 c5 00 00 00 	lea    0x0(,%rax,8),%rdx
  80042031b7:	00 
  80042031b8:	48 8b 45 a8          	mov    -0x58(%rbp),%rax
  80042031bc:	48 8d 1c 02          	lea    (%rdx,%rax,1),%rbx
  80042031c0:	48 8b 45 e0          	mov    -0x20(%rbp),%rax
  80042031c4:	48 89 c7             	mov    %rax,%rdi
  80042031c7:	48 b8 2a 1c 20 04 80 	movabs $0x8004201c2a,%rax
  80042031ce:	00 00 00 
  80042031d1:	ff d0                	callq  *%rax
  80042031d3:	48 83 c8 07          	or     $0x7,%rax
  80042031d7:	48 89 03             	mov    %rax,(%rbx)
				pte_t *pte= pdpe_walk(KADDR((uintptr_t)((pdpe_t *)(PTE_ADDR(pml4e [PML4(va)])))),va,create);
  80042031da:	48 8b 45 a0          	mov    -0x60(%rbp),%rax
  80042031de:	48 c1 e8 27          	shr    $0x27,%rax
  80042031e2:	25 ff 01 00 00       	and    $0x1ff,%eax
  80042031e7:	48 8d 14 c5 00 00 00 	lea    0x0(,%rax,8),%rdx
  80042031ee:	00 
  80042031ef:	48 8b 45 a8          	mov    -0x58(%rbp),%rax
  80042031f3:	48 01 d0             	add    %rdx,%rax
  80042031f6:	48 8b 00             	mov    (%rax),%rax
  80042031f9:	48 25 00 f0 ff ff    	and    $0xfffffffffffff000,%rax
